
CH582M.elf:     file format elf32-littleriscv
CH582M.elf
architecture: riscv:rv32, flags 0x00000112:
EXEC_P, HAS_SYMS, D_PAGED
start address 0x00000000

Program Header:
    LOAD off    0x00001000 vaddr 0x00000000 paddr 0x00000000 align 2**12
         filesz 0x00000004 memsz 0x00000004 flags r-x
    LOAD off    0x00002000 vaddr 0x20000000 paddr 0x00000004 align 2**12
         filesz 0x000009a4 memsz 0x000009a4 flags r-x
    LOAD off    0x000029a8 vaddr 0x000009a8 paddr 0x000009a8 align 2**12
         filesz 0x0000076c memsz 0x0000076c flags r-x
    LOAD off    0x000039a4 vaddr 0x200009a4 paddr 0x00001114 align 2**12
         filesz 0x00000000 memsz 0x00000004 flags rw-
    LOAD off    0x000039a8 vaddr 0x200009a8 paddr 0x00001114 align 2**12
         filesz 0x00000000 memsz 0x000001c0 flags rw-
    LOAD off    0x00003e00 vaddr 0x20007e00 paddr 0x20007e00 align 2**12
         filesz 0x00000000 memsz 0x00000200 flags rw-

Sections:
Idx Name            Size      VMA       LMA       File off  Algn  Flags
  0 .init           00000004  00000000  00000000  00001000  2**1  CONTENTS, ALLOC, LOAD, READONLY, CODE
  1 .highcodelalign 00000000  00000004  00000004  00003114  2**0  CONTENTS
  2 .highcode       000009a4  20000000  00000004  00002000  2**1  CONTENTS, ALLOC, LOAD, READONLY, CODE
  3 .text           0000076c  000009a8  000009a8  000029a8  2**2  CONTENTS, ALLOC, LOAD, READONLY, CODE
  4 .fini           00000000  00001114  00001114  00003114  2**0  CONTENTS, ALLOC, LOAD, CODE
  5 .dlalign        00000000  00001114  00001114  00003114  2**0  CONTENTS
  6 .data           00000004  200009a4  00001114  000039a4  2**0  ALLOC
  7 .bss            000001c0  200009a8  00001114  000039a8  2**2  ALLOC
  8 .stack          00000200  20007e00  20007e00  00003e00  2**0  ALLOC
  9 .debug_info     00003f61  00000000  00000000  00003114  2**0  CONTENTS, READONLY, DEBUGGING
 10 .debug_abbrev   00000a66  00000000  00000000  00007075  2**0  CONTENTS, READONLY, DEBUGGING
 11 .debug_loc      00000cd2  00000000  00000000  00007adb  2**0  CONTENTS, READONLY, DEBUGGING
 12 .debug_aranges  00000158  00000000  00000000  000087b0  2**3  CONTENTS, READONLY, DEBUGGING
 13 .debug_ranges   00000150  00000000  00000000  00008908  2**3  CONTENTS, READONLY, DEBUGGING
 14 .debug_line     000030fd  00000000  00000000  00008a58  2**0  CONTENTS, READONLY, DEBUGGING
 15 .debug_str      00000fc9  00000000  00000000  0000bb55  2**0  CONTENTS, READONLY, DEBUGGING
 16 .comment        00000033  00000000  00000000  0000cb1e  2**0  CONTENTS, READONLY
 17 .debug_frame    000002bc  00000000  00000000  0000cb54  2**2  CONTENTS, READONLY, DEBUGGING
 18 .stabstr        00000117  00000000  00000000  0000ce10  2**0  CONTENTS, READONLY, DEBUGGING
SYMBOL TABLE:
00000000 l    d  .init	00000000 .init
00000004 l    d  .highcodelalign	00000000 .highcodelalign
20000000 l    d  .highcode	00000000 .highcode
000009a8 l    d  .text	00000000 .text
00001114 l    d  .fini	00000000 .fini
00001114 l    d  .dlalign	00000000 .dlalign
200009a4 l    d  .data	00000000 .data
200009a8 l    d  .bss	00000000 .bss
20007e00 l    d  .stack	00000000 .stack
00000000 l    d  .debug_info	00000000 .debug_info
00000000 l    d  .debug_abbrev	00000000 .debug_abbrev
00000000 l    d  .debug_loc	00000000 .debug_loc
00000000 l    d  .debug_aranges	00000000 .debug_aranges
00000000 l    d  .debug_ranges	00000000 .debug_ranges
00000000 l    d  .debug_line	00000000 .debug_line
00000000 l    d  .debug_str	00000000 .debug_str
00000000 l    d  .comment	00000000 .comment
00000000 l    d  .debug_frame	00000000 .debug_frame
00000000 l    d  .stabstr	00000000 .stabstr
00000000 l    df *ABS*	00000000 ./Startup/startup_CH583.o
20000000 l       .highcode	00000000 _vector_base
00000000 l    df *ABS*	00000000 CH58x_sys.c
00000000 l    df *ABS*	00000000 ISP583.c
20000590 l       .highcode	00000000 .loop18
2000059e l       .highcode	00000000 .loop29
200005ac l       .highcode	00000000 .loop40
20000838 l       .highcode	00000000 .loop402
00000000 l    df *ABS*	00000000 Main.c
00000a86 l     F .text	00000028 TKey_Convert.constprop.0
00000000 l    df *ABS*	00000000 CH58x_gpio.c
00000000 l    df *ABS*	00000000 close.c
200005ac g     F .highcode	0000000e FLASH_ROM_OUT
200011a8 g       .data	00000000 __global_pointer$
20000548 g     F .highcode	0000000e mDelayuS
2000048a  w    F .highcode	000000be HardFault_Handler
20000090  w      .highcode	00000000 GPIOB_IRQHandler
20000090  w      .highcode	00000000 GPIOA_IRQHandler
20000090  w      .highcode	00000000 SysTick_Handler
20000090  w      .highcode	00000000 NMI_Handler
20000090  w      .highcode	00000000 UART1_IRQHandler
200009a8 g       .bss	00000000 _sbss
00000200 g       *ABS*	00000000 __stack_size
2000059e g     F .highcode	0000000e FLASH_ROM_IN
20000090  w      .highcode	00000000 UART0_IRQHandler
00000fee g     F .text	0000001a GPIOAGPPCfg
00000004 g       .init	00000000 _einit
20000090  w      .highcode	00000000 BB_IRQHandler
2000063a g     F .highcode	0000036a FLASH_EEPROM_CMD
20000090  w      .highcode	00000000 Break_Point_Handler
20000090  w      .highcode	00000000 TMR0_IRQHandler
2000057e g     F .highcode	00000012 FLASH_ROM_BEG
20000556 g     F .highcode	00000028 mDelaymS
20000090  w      .highcode	00000000 Ecall_M_Mode_Handler
20007e00 g       .stack	00000000 _heap_end
200005ba g     F .highcode	00000048 FLASH_ROM_ADDR
20000090  w      .highcode	00000000 RTC_IRQHandler
20000b68 g       .bss	00000000 _ebss
200009b8 g     O .bss	000000c0 EP0_Databuf
20000602 g     F .highcode	00000038 FLASH_ROM_WAIT
000010d8 g     O .text	00000020 row_pin
20000090  w      .highcode	00000000 UART2_IRQHandler
20000090  w      .highcode	00000000 PWMX_IRQHandler
200009b0 g     O .bss	00000001 fn_pressed
20000a78 g     O .bss	00000080 EP1_Databuf
00000000 g       .init	00000000 _start
20000090  w      .highcode	00000000 ADC_IRQHandler
20000000 g       .highcode	00000000 _highcode_vma_start
00000b84 g     F .text	0000012e MatrixScan
20000090  w      .highcode	00000000 TMR2_IRQHandler
200009b4 g     O .bss	00000004 IRQ_STA
200009a4 g       .data	00000000 _data_vma
20000092 g     F .highcode	00000386 SetSysClock
00000f22 g     F .text	00000026 USB_IRQHandler
00001040 g     O .text	00000060 KeyMap
20000090  w      .highcode	00000000 I2C_IRQHandler
00000e26 g     F .text	000000fc main
20000090  w      .highcode	00000000 USB2_IRQHandler
00000cb2 g     F .text	00000174 SendHIDReport
00000004 g       .highcodelalign	00000000 _highcode_lma
20000090  w      .highcode	00000000 LLE_IRQHandler
00000000 g       .init	00000000 _sinit
20000090  w      .highcode	00000000 WDOG_BAT_IRQHandler
20000090  w      .highcode	00000000 Ecall_U_Mode_Handler
0000110c g     O .text	00000007 TKC
200009a8 g     O .bss	00000008 HIDKeyBuff
20000090  w      .highcode	00000000 TMR3_IRQHandler
20000b58 g     O .bss	0000000e tkey_base
20008000 g       .stack	00000000 _eusrstack
20000090  w      .highcode	00000000 SW_Handler
00001008 g     O .text	00000038 FnTable
00000f48 g     F .text	000000a6 GPIOA_ModeCfg
200009a8 g       .data	00000000 _edata
20000090  w      .highcode	00000000 SPI0_IRQHandler
20000b68 g       .bss	00000000 _end
200009a4 g       .highcode	00000000 _highcode_vma_end
00001114 g       .dlalign	00000000 _data_lma
00000aae g     F .text	000000aa TKey_Init
000010a0 g     O .text	00000038 KeyTable
00000b58 g     F .text	0000002c GPIOInit
000009a8  w      .text	00000000 handle_reset
20000090  w      .highcode	00000000 UART3_IRQHandler
20000590 g     F .highcode	0000000e FLASH_ROM_END
20000090  w      .highcode	00000000 TMR1_IRQHandler
20000b28 g     O .bss	00000030 key_state
20000af8 g     O .bss	00000030 key_prev
20000418 g     F .highcode	00000072 SYS_ResetExecute



Disassembly of section .init:

00000000 <_sinit>:
_start():
d:\Electromic\business_card\obj/../Startup/startup_CH583.S:17

	.section	.init,"ax",@progbits
	.global	_start
	.align	1
_start:
	j	handle_reset
   0:	1a90006f          	j	9a8 <handle_reset>

Disassembly of section .highcode:

20000000 <_highcode_vma_start>:
	...
_vector_base():
20000008:	0090                	addi	a2,sp,64
2000000a:	2000                	fld	fs0,0(s0)
2000000c:	048a                	slli	s1,s1,0x2
2000000e:	2000                	fld	fs0,0(s0)
20000010:	bda9                	j	1ffffe6a <_data_lma+0x1fffed56>
20000012:	f3f9                	bnez	a5,1fffffd8 <_data_lma+0x1fffeec4>
20000014:	0090                	addi	a2,sp,64
20000016:	2000                	fld	fs0,0(s0)
	...
20000020:	0090                	addi	a2,sp,64
20000022:	2000                	fld	fs0,0(s0)
20000024:	0090                	addi	a2,sp,64
20000026:	2000                	fld	fs0,0(s0)
	...
20000030:	0090                	addi	a2,sp,64
20000032:	2000                	fld	fs0,0(s0)
20000034:	0000                	unimp
20000036:	0000                	unimp
20000038:	0090                	addi	a2,sp,64
2000003a:	2000                	fld	fs0,0(s0)
2000003c:	0000                	unimp
2000003e:	0000                	unimp
20000040:	0090                	addi	a2,sp,64
20000042:	2000                	fld	fs0,0(s0)
20000044:	0090                	addi	a2,sp,64
20000046:	2000                	fld	fs0,0(s0)
20000048:	0090                	addi	a2,sp,64
2000004a:	2000                	fld	fs0,0(s0)
2000004c:	0090                	addi	a2,sp,64
2000004e:	2000                	fld	fs0,0(s0)
20000050:	0090                	addi	a2,sp,64
20000052:	2000                	fld	fs0,0(s0)
20000054:	0090                	addi	a2,sp,64
20000056:	2000                	fld	fs0,0(s0)
20000058:	0f22                	slli	t5,t5,0x8
2000005a:	0000                	unimp
2000005c:	0090                	addi	a2,sp,64
2000005e:	2000                	fld	fs0,0(s0)
20000060:	0090                	addi	a2,sp,64
20000062:	2000                	fld	fs0,0(s0)
20000064:	0090                	addi	a2,sp,64
20000066:	2000                	fld	fs0,0(s0)
20000068:	0090                	addi	a2,sp,64
2000006a:	2000                	fld	fs0,0(s0)
2000006c:	0090                	addi	a2,sp,64
2000006e:	2000                	fld	fs0,0(s0)
20000070:	0090                	addi	a2,sp,64
20000072:	2000                	fld	fs0,0(s0)
20000074:	0090                	addi	a2,sp,64
20000076:	2000                	fld	fs0,0(s0)
20000078:	0090                	addi	a2,sp,64
2000007a:	2000                	fld	fs0,0(s0)
2000007c:	0090                	addi	a2,sp,64
2000007e:	2000                	fld	fs0,0(s0)
20000080:	0090                	addi	a2,sp,64
20000082:	2000                	fld	fs0,0(s0)
20000084:	0090                	addi	a2,sp,64
20000086:	2000                	fld	fs0,0(s0)
20000088:	0090                	addi	a2,sp,64
2000008a:	2000                	fld	fs0,0(s0)
2000008c:	0090                	addi	a2,sp,64
2000008e:	2000                	fld	fs0,0(s0)

20000090 <ADC_IRQHandler>:
GPIOB_IRQHandler():
d:\Electromic\business_card\obj/../Startup/startup_CH583.S:121
TMR3_IRQHandler:
UART2_IRQHandler:
UART3_IRQHandler:
WDOG_BAT_IRQHandler: 
1:  
	j 1b
20000090:	a001                	j	20000090 <ADC_IRQHandler>

20000092 <SetSysClock>:
sys_safe_access_enable():
d:\Electromic\business_card\StdPeriphDriver\inc/CH58x_sys.h:182
 * within the valid period. The safe mode will be automatically 
 * terminated after the above validity period is exceeded.
 */
 __attribute__((always_inline)) static inline void sys_safe_access_enable(void)
{
   if(read_csr(0x800)&0x08)
20000092:	80002773          	csrr	a4,0x800
20000096:	8b21                	andi	a4,a4,8
20000098:	80c18793          	addi	a5,gp,-2036 # 200009b4 <IRQ_STA>
2000009c:	cb09                	beqz	a4,200000ae <SetSysClock+0x1c>
d:\Electromic\business_card\StdPeriphDriver\inc/CH58x_sys.h:184
   {
       IRQ_STA = read_csr(0x800);
2000009e:	80002773          	csrr	a4,0x800
200000a2:	80e1a623          	sw	a4,-2036(gp) # 200009b4 <IRQ_STA>
d:\Electromic\business_card\StdPeriphDriver\inc/CH58x_sys.h:185
       write_csr(0x800, (IRQ_STA&(~0x08)));
200000a6:	4398                	lw	a4,0(a5)
200000a8:	9b5d                	andi	a4,a4,-9
200000aa:	80071073          	csrw	0x800,a4
d:\Electromic\business_card\StdPeriphDriver\inc/CH58x_sys.h:187
   }
   SAFEOPERATE;
200000ae:	0000100f          	fence.i
d:\Electromic\business_card\StdPeriphDriver\inc/CH58x_sys.h:188
   R8_SAFE_ACCESS_SIG = SAFE_ACCESS_SIG1;
200000b2:	40001737          	lui	a4,0x40001
200000b6:	05700693          	li	a3,87
200000ba:	04d70023          	sb	a3,64(a4) # 40001040 <_eusrstack+0x1fff9040>
d:\Electromic\business_card\StdPeriphDriver\inc/CH58x_sys.h:189
   R8_SAFE_ACCESS_SIG = SAFE_ACCESS_SIG2;
200000be:	fa800693          	li	a3,-88
200000c2:	04d70023          	sb	a3,64(a4)
d:\Electromic\business_card\StdPeriphDriver\inc/CH58x_sys.h:190
   SAFEOPERATE;
200000c6:	0000100f          	fence.i
SetSysClock():
d:\Electromic\business_card\obj/../StdPeriphDriver/CH58x_sys.c:30
__HIGH_CODE
void SetSysClock(SYS_CLKTypeDef sc)
{
    uint32_t i;
    sys_safe_access_enable();
    R8_PLL_CONFIG &= ~(1 << 5); //
200000ca:	04b74683          	lbu	a3,75(a4)
200000ce:	0df6f693          	andi	a3,a3,223
200000d2:	04d705a3          	sb	a3,75(a4)
sys_safe_access_disable():
d:\Electromic\business_card\StdPeriphDriver\inc/CH58x_sys.h:195
}

__attribute__((always_inline)) static inline void sys_safe_access_disable(void)
{
   R8_SAFE_ACCESS_SIG = 0;
200000d6:	04070023          	sb	zero,64(a4)
d:\Electromic\business_card\StdPeriphDriver\inc/CH58x_sys.h:196
   write_csr(0x800, read_csr(0x800)|(IRQ_STA&0x08));
200000da:	80002673          	csrr	a2,0x800
200000de:	4394                	lw	a3,0(a5)
200000e0:	8aa1                	andi	a3,a3,8
200000e2:	8ed1                	or	a3,a3,a2
200000e4:	80069073          	csrw	0x800,a3
d:\Electromic\business_card\StdPeriphDriver\inc/CH58x_sys.h:197
   IRQ_STA = 0;
200000e8:	8001a623          	sw	zero,-2036(gp) # 200009b4 <IRQ_STA>
d:\Electromic\business_card\StdPeriphDriver\inc/CH58x_sys.h:198
   SAFEOPERATE;
200000ec:	0000100f          	fence.i
SetSysClock():
d:\Electromic\business_card\obj/../StdPeriphDriver/CH58x_sys.c:32
    sys_safe_access_disable();
    if(sc & 0x20)
200000f0:	02057693          	andi	a3,a0,32
200000f4:	18068463          	beqz	a3,2000027c <SetSysClock+0x1ea>
d:\Electromic\business_card\obj/../StdPeriphDriver/CH58x_sys.c:34
    { // HSE div
        if(!(R8_HFCK_PWR_CTRL & RB_CLK_XT32M_PON))
200000f8:	00a74703          	lbu	a4,10(a4)
200000fc:	8b11                	andi	a4,a4,4
200000fe:	e725                	bnez	a4,20000166 <SetSysClock+0xd4>
sys_safe_access_enable():
d:\Electromic\business_card\StdPeriphDriver\inc/CH58x_sys.h:182
   if(read_csr(0x800)&0x08)
20000100:	80002773          	csrr	a4,0x800
20000104:	8b21                	andi	a4,a4,8
20000106:	cb09                	beqz	a4,20000118 <SetSysClock+0x86>
d:\Electromic\business_card\StdPeriphDriver\inc/CH58x_sys.h:184
       IRQ_STA = read_csr(0x800);
20000108:	80002773          	csrr	a4,0x800
2000010c:	80e1a623          	sw	a4,-2036(gp) # 200009b4 <IRQ_STA>
d:\Electromic\business_card\StdPeriphDriver\inc/CH58x_sys.h:185
       write_csr(0x800, (IRQ_STA&(~0x08)));
20000110:	4398                	lw	a4,0(a5)
20000112:	9b5d                	andi	a4,a4,-9
20000114:	80071073          	csrw	0x800,a4
d:\Electromic\business_card\StdPeriphDriver\inc/CH58x_sys.h:187
   SAFEOPERATE;
20000118:	0000100f          	fence.i
d:\Electromic\business_card\StdPeriphDriver\inc/CH58x_sys.h:188
   R8_SAFE_ACCESS_SIG = SAFE_ACCESS_SIG1;
2000011c:	40001737          	lui	a4,0x40001
20000120:	05700693          	li	a3,87
20000124:	04d70023          	sb	a3,64(a4) # 40001040 <_eusrstack+0x1fff9040>
d:\Electromic\business_card\StdPeriphDriver\inc/CH58x_sys.h:189
   R8_SAFE_ACCESS_SIG = SAFE_ACCESS_SIG2;
20000128:	fa800693          	li	a3,-88
2000012c:	04d70023          	sb	a3,64(a4)
d:\Electromic\business_card\StdPeriphDriver\inc/CH58x_sys.h:190
   SAFEOPERATE;
20000130:	0000100f          	fence.i
SetSysClock():
d:\Electromic\business_card\obj/../StdPeriphDriver/CH58x_sys.c:37
        {
            sys_safe_access_enable();
            R8_HFCK_PWR_CTRL |= RB_CLK_XT32M_PON; // HSE power on
20000134:	00a74683          	lbu	a3,10(a4)
20000138:	0046e693          	ori	a3,a3,4
2000013c:	00d70523          	sb	a3,10(a4)
sys_safe_access_disable():
d:\Electromic\business_card\StdPeriphDriver\inc/CH58x_sys.h:195
   R8_SAFE_ACCESS_SIG = 0;
20000140:	04070023          	sb	zero,64(a4)
d:\Electromic\business_card\StdPeriphDriver\inc/CH58x_sys.h:196
   write_csr(0x800, read_csr(0x800)|(IRQ_STA&0x08));
20000144:	800026f3          	csrr	a3,0x800
20000148:	4398                	lw	a4,0(a5)
2000014a:	8b21                	andi	a4,a4,8
2000014c:	8f55                	or	a4,a4,a3
2000014e:	80071073          	csrw	0x800,a4
d:\Electromic\business_card\StdPeriphDriver\inc/CH58x_sys.h:197
   IRQ_STA = 0;
20000152:	8001a623          	sw	zero,-2036(gp) # 200009b4 <IRQ_STA>
d:\Electromic\business_card\StdPeriphDriver\inc/CH58x_sys.h:198
   SAFEOPERATE;
20000156:	0000100f          	fence.i
2000015a:	4b000713          	li	a4,1200
SetSysClock():
d:\Electromic\business_card\obj/../StdPeriphDriver/CH58x_sys.c:41 (discriminator 3)
            sys_safe_access_disable();
            for(i = 0; i < 1200; i++)
            {
                __nop();
2000015e:	0001                	nop
d:\Electromic\business_card\obj/../StdPeriphDriver/CH58x_sys.c:42 (discriminator 3)
                __nop();
20000160:	0001                	nop
20000162:	177d                	addi	a4,a4,-1
d:\Electromic\business_card\obj/../StdPeriphDriver/CH58x_sys.c:39 (discriminator 3)
            for(i = 0; i < 1200; i++)
20000164:	ff6d                	bnez	a4,2000015e <SetSysClock+0xcc>
sys_safe_access_enable():
d:\Electromic\business_card\StdPeriphDriver\inc/CH58x_sys.h:182
   if(read_csr(0x800)&0x08)
20000166:	80002773          	csrr	a4,0x800
2000016a:	8b21                	andi	a4,a4,8
2000016c:	cb09                	beqz	a4,2000017e <SetSysClock+0xec>
d:\Electromic\business_card\StdPeriphDriver\inc/CH58x_sys.h:184
       IRQ_STA = read_csr(0x800);
2000016e:	80002773          	csrr	a4,0x800
20000172:	80e1a623          	sw	a4,-2036(gp) # 200009b4 <IRQ_STA>
d:\Electromic\business_card\StdPeriphDriver\inc/CH58x_sys.h:185
       write_csr(0x800, (IRQ_STA&(~0x08)));
20000176:	4398                	lw	a4,0(a5)
20000178:	9b5d                	andi	a4,a4,-9
2000017a:	80071073          	csrw	0x800,a4
d:\Electromic\business_card\StdPeriphDriver\inc/CH58x_sys.h:187
   SAFEOPERATE;
2000017e:	0000100f          	fence.i
d:\Electromic\business_card\StdPeriphDriver\inc/CH58x_sys.h:188
   R8_SAFE_ACCESS_SIG = SAFE_ACCESS_SIG1;
20000182:	40001737          	lui	a4,0x40001
20000186:	05700693          	li	a3,87
2000018a:	04d70023          	sb	a3,64(a4) # 40001040 <_eusrstack+0x1fff9040>
d:\Electromic\business_card\StdPeriphDriver\inc/CH58x_sys.h:189
   R8_SAFE_ACCESS_SIG = SAFE_ACCESS_SIG2;
2000018e:	fa800693          	li	a3,-88
20000192:	04d70023          	sb	a3,64(a4)
d:\Electromic\business_card\StdPeriphDriver\inc/CH58x_sys.h:190
   SAFEOPERATE;
20000196:	0000100f          	fence.i
SetSysClock():
d:\Electromic\business_card\obj/../StdPeriphDriver/CH58x_sys.c:47
            }
        }

        sys_safe_access_enable();
        R16_CLK_SYS_CFG = (0 << 6) | (sc & 0x1f);
2000019a:	897d                	andi	a0,a0,31
2000019c:	00a71423          	sh	a0,8(a4)
d:\Electromic\business_card\obj/../StdPeriphDriver/CH58x_sys.c:48
        __nop();
200001a0:	0001                	nop
d:\Electromic\business_card\obj/../StdPeriphDriver/CH58x_sys.c:49
        __nop();
200001a2:	0001                	nop
d:\Electromic\business_card\obj/../StdPeriphDriver/CH58x_sys.c:50
        __nop();
200001a4:	0001                	nop
d:\Electromic\business_card\obj/../StdPeriphDriver/CH58x_sys.c:51
        __nop();
200001a6:	0001                	nop
sys_safe_access_disable():
d:\Electromic\business_card\StdPeriphDriver\inc/CH58x_sys.h:195
   R8_SAFE_ACCESS_SIG = 0;
200001a8:	04070023          	sb	zero,64(a4)
d:\Electromic\business_card\StdPeriphDriver\inc/CH58x_sys.h:196
   write_csr(0x800, read_csr(0x800)|(IRQ_STA&0x08));
200001ac:	800026f3          	csrr	a3,0x800
200001b0:	4398                	lw	a4,0(a5)
200001b2:	8b21                	andi	a4,a4,8
200001b4:	8f55                	or	a4,a4,a3
200001b6:	80071073          	csrw	0x800,a4
d:\Electromic\business_card\StdPeriphDriver\inc/CH58x_sys.h:197
   IRQ_STA = 0;
200001ba:	8001a623          	sw	zero,-2036(gp) # 200009b4 <IRQ_STA>
d:\Electromic\business_card\StdPeriphDriver\inc/CH58x_sys.h:198
   SAFEOPERATE;
200001be:	0000100f          	fence.i
sys_safe_access_enable():
d:\Electromic\business_card\StdPeriphDriver\inc/CH58x_sys.h:182
   if(read_csr(0x800)&0x08)
200001c2:	80002773          	csrr	a4,0x800
200001c6:	8b21                	andi	a4,a4,8
200001c8:	cb09                	beqz	a4,200001da <SetSysClock+0x148>
d:\Electromic\business_card\StdPeriphDriver\inc/CH58x_sys.h:184
       IRQ_STA = read_csr(0x800);
200001ca:	80002773          	csrr	a4,0x800
200001ce:	80e1a623          	sw	a4,-2036(gp) # 200009b4 <IRQ_STA>
d:\Electromic\business_card\StdPeriphDriver\inc/CH58x_sys.h:185
       write_csr(0x800, (IRQ_STA&(~0x08)));
200001d2:	4398                	lw	a4,0(a5)
200001d4:	9b5d                	andi	a4,a4,-9
200001d6:	80071073          	csrw	0x800,a4
d:\Electromic\business_card\StdPeriphDriver\inc/CH58x_sys.h:187
   SAFEOPERATE;
200001da:	0000100f          	fence.i
d:\Electromic\business_card\StdPeriphDriver\inc/CH58x_sys.h:188
   R8_SAFE_ACCESS_SIG = SAFE_ACCESS_SIG1;
200001de:	40001737          	lui	a4,0x40001
200001e2:	05700693          	li	a3,87
200001e6:	04d70023          	sb	a3,64(a4) # 40001040 <_eusrstack+0x1fff9040>
d:\Electromic\business_card\StdPeriphDriver\inc/CH58x_sys.h:189
   R8_SAFE_ACCESS_SIG = SAFE_ACCESS_SIG2;
200001ea:	fa800693          	li	a3,-88
200001ee:	04d70023          	sb	a3,64(a4)
d:\Electromic\business_card\StdPeriphDriver\inc/CH58x_sys.h:190
   SAFEOPERATE;
200001f2:	0000100f          	fence.i
SetSysClock():
d:\Electromic\business_card\obj/../StdPeriphDriver/CH58x_sys.c:54
        sys_safe_access_disable();
        sys_safe_access_enable();
        SAFEOPERATE;
200001f6:	0000100f          	fence.i
d:\Electromic\business_card\obj/../StdPeriphDriver/CH58x_sys.c:55
        R8_FLASH_CFG = 0X51;
200001fa:	400026b7          	lui	a3,0x40002
200001fe:	05100613          	li	a2,81
d:\Electromic\business_card\obj/../StdPeriphDriver/CH58x_sys.c:88
            sys_safe_access_disable();
        }
        else
        {
            sys_safe_access_enable();
            R8_FLASH_CFG = 0X52;
20000202:	80c683a3          	sb	a2,-2041(a3) # 40001807 <_eusrstack+0x1fff9807>
sys_safe_access_disable():
d:\Electromic\business_card\StdPeriphDriver\inc/CH58x_sys.h:195
   R8_SAFE_ACCESS_SIG = 0;
20000206:	04070023          	sb	zero,64(a4)
d:\Electromic\business_card\StdPeriphDriver\inc/CH58x_sys.h:196
   write_csr(0x800, read_csr(0x800)|(IRQ_STA&0x08));
2000020a:	800026f3          	csrr	a3,0x800
2000020e:	4398                	lw	a4,0(a5)
20000210:	8b21                	andi	a4,a4,8
20000212:	8f55                	or	a4,a4,a3
20000214:	80071073          	csrw	0x800,a4
d:\Electromic\business_card\StdPeriphDriver\inc/CH58x_sys.h:197
   IRQ_STA = 0;
20000218:	8001a623          	sw	zero,-2036(gp) # 200009b4 <IRQ_STA>
d:\Electromic\business_card\StdPeriphDriver\inc/CH58x_sys.h:198
   SAFEOPERATE;
2000021c:	0000100f          	fence.i
sys_safe_access_enable():
d:\Electromic\business_card\StdPeriphDriver\inc/CH58x_sys.h:182
   if(read_csr(0x800)&0x08)
20000220:	80002773          	csrr	a4,0x800
20000224:	8b21                	andi	a4,a4,8
20000226:	cb09                	beqz	a4,20000238 <SetSysClock+0x1a6>
d:\Electromic\business_card\StdPeriphDriver\inc/CH58x_sys.h:184
       IRQ_STA = read_csr(0x800);
20000228:	80002773          	csrr	a4,0x800
2000022c:	80e1a623          	sw	a4,-2036(gp) # 200009b4 <IRQ_STA>
d:\Electromic\business_card\StdPeriphDriver\inc/CH58x_sys.h:185
       write_csr(0x800, (IRQ_STA&(~0x08)));
20000230:	4398                	lw	a4,0(a5)
20000232:	9b5d                	andi	a4,a4,-9
20000234:	80071073          	csrw	0x800,a4
d:\Electromic\business_card\StdPeriphDriver\inc/CH58x_sys.h:187
   SAFEOPERATE;
20000238:	0000100f          	fence.i
d:\Electromic\business_card\StdPeriphDriver\inc/CH58x_sys.h:188
   R8_SAFE_ACCESS_SIG = SAFE_ACCESS_SIG1;
2000023c:	40001737          	lui	a4,0x40001
20000240:	05700693          	li	a3,87
20000244:	04d70023          	sb	a3,64(a4) # 40001040 <_eusrstack+0x1fff9040>
d:\Electromic\business_card\StdPeriphDriver\inc/CH58x_sys.h:189
   R8_SAFE_ACCESS_SIG = SAFE_ACCESS_SIG2;
20000248:	fa800693          	li	a3,-88
2000024c:	04d70023          	sb	a3,64(a4)
d:\Electromic\business_card\StdPeriphDriver\inc/CH58x_sys.h:190
   SAFEOPERATE;
20000250:	0000100f          	fence.i
SetSysClock():
d:\Electromic\business_card\obj/../StdPeriphDriver/CH58x_sys.c:100
        R16_CLK_SYS_CFG |= RB_CLK_SYS_MOD;
        sys_safe_access_disable();
    }
    //Ė³Ė─FLASH clkĄ─Ū²Č»─▄┴”
    sys_safe_access_enable();
    R8_PLL_CONFIG |= 1 << 7;
20000254:	04b74683          	lbu	a3,75(a4)
20000258:	0806e693          	ori	a3,a3,128
2000025c:	04d705a3          	sb	a3,75(a4)
sys_safe_access_disable():
d:\Electromic\business_card\StdPeriphDriver\inc/CH58x_sys.h:195
   R8_SAFE_ACCESS_SIG = 0;
20000260:	04070023          	sb	zero,64(a4)
d:\Electromic\business_card\StdPeriphDriver\inc/CH58x_sys.h:196
   write_csr(0x800, read_csr(0x800)|(IRQ_STA&0x08));
20000264:	80002773          	csrr	a4,0x800
20000268:	439c                	lw	a5,0(a5)
2000026a:	8ba1                	andi	a5,a5,8
2000026c:	8fd9                	or	a5,a5,a4
2000026e:	80079073          	csrw	0x800,a5
d:\Electromic\business_card\StdPeriphDriver\inc/CH58x_sys.h:197
   IRQ_STA = 0;
20000272:	8001a623          	sw	zero,-2036(gp) # 200009b4 <IRQ_STA>
d:\Electromic\business_card\StdPeriphDriver\inc/CH58x_sys.h:198
   SAFEOPERATE;
20000276:	0000100f          	fence.i
SetSysClock():
d:\Electromic\business_card\obj/../StdPeriphDriver/CH58x_sys.c:102
    sys_safe_access_disable();
}
2000027a:	8082                	ret
d:\Electromic\business_card\obj/../StdPeriphDriver/CH58x_sys.c:59
    else if(sc & 0x40)
2000027c:	04057693          	andi	a3,a0,64
20000280:	14068b63          	beqz	a3,200003d6 <SetSysClock+0x344>
d:\Electromic\business_card\obj/../StdPeriphDriver/CH58x_sys.c:61
        if(!(R8_HFCK_PWR_CTRL & RB_CLK_PLL_PON))
20000284:	00a74703          	lbu	a4,10(a4)
20000288:	8b41                	andi	a4,a4,16
2000028a:	e725                	bnez	a4,200002f2 <SetSysClock+0x260>
sys_safe_access_enable():
d:\Electromic\business_card\StdPeriphDriver\inc/CH58x_sys.h:182
   if(read_csr(0x800)&0x08)
2000028c:	80002773          	csrr	a4,0x800
20000290:	8b21                	andi	a4,a4,8
20000292:	cb09                	beqz	a4,200002a4 <SetSysClock+0x212>
d:\Electromic\business_card\StdPeriphDriver\inc/CH58x_sys.h:184
       IRQ_STA = read_csr(0x800);
20000294:	80002773          	csrr	a4,0x800
20000298:	80e1a623          	sw	a4,-2036(gp) # 200009b4 <IRQ_STA>
d:\Electromic\business_card\StdPeriphDriver\inc/CH58x_sys.h:185
       write_csr(0x800, (IRQ_STA&(~0x08)));
2000029c:	4398                	lw	a4,0(a5)
2000029e:	9b5d                	andi	a4,a4,-9
200002a0:	80071073          	csrw	0x800,a4
d:\Electromic\business_card\StdPeriphDriver\inc/CH58x_sys.h:187
   SAFEOPERATE;
200002a4:	0000100f          	fence.i
d:\Electromic\business_card\StdPeriphDriver\inc/CH58x_sys.h:188
   R8_SAFE_ACCESS_SIG = SAFE_ACCESS_SIG1;
200002a8:	40001737          	lui	a4,0x40001
200002ac:	05700693          	li	a3,87
200002b0:	04d70023          	sb	a3,64(a4) # 40001040 <_eusrstack+0x1fff9040>
d:\Electromic\business_card\StdPeriphDriver\inc/CH58x_sys.h:189
   R8_SAFE_ACCESS_SIG = SAFE_ACCESS_SIG2;
200002b4:	fa800693          	li	a3,-88
200002b8:	04d70023          	sb	a3,64(a4)
d:\Electromic\business_card\StdPeriphDriver\inc/CH58x_sys.h:190
   SAFEOPERATE;
200002bc:	0000100f          	fence.i
SetSysClock():
d:\Electromic\business_card\obj/../StdPeriphDriver/CH58x_sys.c:64
            R8_HFCK_PWR_CTRL |= RB_CLK_PLL_PON; // PLL power on
200002c0:	00a74683          	lbu	a3,10(a4)
200002c4:	0106e693          	ori	a3,a3,16
200002c8:	00d70523          	sb	a3,10(a4)
sys_safe_access_disable():
d:\Electromic\business_card\StdPeriphDriver\inc/CH58x_sys.h:195
   R8_SAFE_ACCESS_SIG = 0;
200002cc:	04070023          	sb	zero,64(a4)
d:\Electromic\business_card\StdPeriphDriver\inc/CH58x_sys.h:196
   write_csr(0x800, read_csr(0x800)|(IRQ_STA&0x08));
200002d0:	800026f3          	csrr	a3,0x800
200002d4:	4398                	lw	a4,0(a5)
200002d6:	8b21                	andi	a4,a4,8
200002d8:	8f55                	or	a4,a4,a3
200002da:	80071073          	csrw	0x800,a4
d:\Electromic\business_card\StdPeriphDriver\inc/CH58x_sys.h:197
   IRQ_STA = 0;
200002de:	8001a623          	sw	zero,-2036(gp) # 200009b4 <IRQ_STA>
d:\Electromic\business_card\StdPeriphDriver\inc/CH58x_sys.h:198
   SAFEOPERATE;
200002e2:	0000100f          	fence.i
200002e6:	7d000713          	li	a4,2000
SetSysClock():
d:\Electromic\business_card\obj/../StdPeriphDriver/CH58x_sys.c:68 (discriminator 3)
                __nop();
200002ea:	0001                	nop
d:\Electromic\business_card\obj/../StdPeriphDriver/CH58x_sys.c:69 (discriminator 3)
                __nop();
200002ec:	0001                	nop
200002ee:	177d                	addi	a4,a4,-1
d:\Electromic\business_card\obj/../StdPeriphDriver/CH58x_sys.c:66 (discriminator 3)
            for(i = 0; i < 2000; i++)
200002f0:	ff6d                	bnez	a4,200002ea <SetSysClock+0x258>
sys_safe_access_enable():
d:\Electromic\business_card\StdPeriphDriver\inc/CH58x_sys.h:182
   if(read_csr(0x800)&0x08)
200002f2:	80002773          	csrr	a4,0x800
200002f6:	8b21                	andi	a4,a4,8
200002f8:	cb09                	beqz	a4,2000030a <SetSysClock+0x278>
d:\Electromic\business_card\StdPeriphDriver\inc/CH58x_sys.h:184
       IRQ_STA = read_csr(0x800);
200002fa:	80002773          	csrr	a4,0x800
200002fe:	80e1a623          	sw	a4,-2036(gp) # 200009b4 <IRQ_STA>
d:\Electromic\business_card\StdPeriphDriver\inc/CH58x_sys.h:185
       write_csr(0x800, (IRQ_STA&(~0x08)));
20000302:	4398                	lw	a4,0(a5)
20000304:	9b5d                	andi	a4,a4,-9
20000306:	80071073          	csrw	0x800,a4
d:\Electromic\business_card\StdPeriphDriver\inc/CH58x_sys.h:187
   SAFEOPERATE;
2000030a:	0000100f          	fence.i
d:\Electromic\business_card\StdPeriphDriver\inc/CH58x_sys.h:188
   R8_SAFE_ACCESS_SIG = SAFE_ACCESS_SIG1;
2000030e:	40001737          	lui	a4,0x40001
20000312:	05700693          	li	a3,87
20000316:	04d70023          	sb	a3,64(a4) # 40001040 <_eusrstack+0x1fff9040>
d:\Electromic\business_card\StdPeriphDriver\inc/CH58x_sys.h:189
   R8_SAFE_ACCESS_SIG = SAFE_ACCESS_SIG2;
2000031a:	fa800693          	li	a3,-88
2000031e:	04d70023          	sb	a3,64(a4)
d:\Electromic\business_card\StdPeriphDriver\inc/CH58x_sys.h:190
   SAFEOPERATE;
20000322:	0000100f          	fence.i
SetSysClock():
d:\Electromic\business_card\obj/../StdPeriphDriver/CH58x_sys.c:73
        R16_CLK_SYS_CFG = (1 << 6) | (sc & 0x1f);
20000326:	01f57693          	andi	a3,a0,31
2000032a:	0406e693          	ori	a3,a3,64
2000032e:	00d71423          	sh	a3,8(a4)
d:\Electromic\business_card\obj/../StdPeriphDriver/CH58x_sys.c:74
        __nop();
20000332:	0001                	nop
d:\Electromic\business_card\obj/../StdPeriphDriver/CH58x_sys.c:75
        __nop();
20000334:	0001                	nop
d:\Electromic\business_card\obj/../StdPeriphDriver/CH58x_sys.c:76
        __nop();
20000336:	0001                	nop
d:\Electromic\business_card\obj/../StdPeriphDriver/CH58x_sys.c:77
        __nop();
20000338:	0001                	nop
sys_safe_access_disable():
d:\Electromic\business_card\StdPeriphDriver\inc/CH58x_sys.h:195
   R8_SAFE_ACCESS_SIG = 0;
2000033a:	04070023          	sb	zero,64(a4)
d:\Electromic\business_card\StdPeriphDriver\inc/CH58x_sys.h:196
   write_csr(0x800, read_csr(0x800)|(IRQ_STA&0x08));
2000033e:	800026f3          	csrr	a3,0x800
20000342:	4398                	lw	a4,0(a5)
20000344:	8b21                	andi	a4,a4,8
20000346:	8f55                	or	a4,a4,a3
20000348:	80071073          	csrw	0x800,a4
d:\Electromic\business_card\StdPeriphDriver\inc/CH58x_sys.h:197
   IRQ_STA = 0;
2000034c:	8001a623          	sw	zero,-2036(gp) # 200009b4 <IRQ_STA>
d:\Electromic\business_card\StdPeriphDriver\inc/CH58x_sys.h:198
   SAFEOPERATE;
20000350:	0000100f          	fence.i
SetSysClock():
d:\Electromic\business_card\obj/../StdPeriphDriver/CH58x_sys.c:79
        if(sc == CLK_SOURCE_PLL_80MHz)
20000354:	04600713          	li	a4,70
20000358:	04e51063          	bne	a0,a4,20000398 <SetSysClock+0x306>
sys_safe_access_enable():
d:\Electromic\business_card\StdPeriphDriver\inc/CH58x_sys.h:182
   if(read_csr(0x800)&0x08)
2000035c:	80002773          	csrr	a4,0x800
20000360:	8b21                	andi	a4,a4,8
20000362:	cb09                	beqz	a4,20000374 <SetSysClock+0x2e2>
d:\Electromic\business_card\StdPeriphDriver\inc/CH58x_sys.h:184
       IRQ_STA = read_csr(0x800);
20000364:	80002773          	csrr	a4,0x800
20000368:	80e1a623          	sw	a4,-2036(gp) # 200009b4 <IRQ_STA>
d:\Electromic\business_card\StdPeriphDriver\inc/CH58x_sys.h:185
       write_csr(0x800, (IRQ_STA&(~0x08)));
2000036c:	4398                	lw	a4,0(a5)
2000036e:	9b5d                	andi	a4,a4,-9
20000370:	80071073          	csrw	0x800,a4
d:\Electromic\business_card\StdPeriphDriver\inc/CH58x_sys.h:187
   SAFEOPERATE;
20000374:	0000100f          	fence.i
d:\Electromic\business_card\StdPeriphDriver\inc/CH58x_sys.h:188
   R8_SAFE_ACCESS_SIG = SAFE_ACCESS_SIG1;
20000378:	40001737          	lui	a4,0x40001
2000037c:	05700693          	li	a3,87
20000380:	04d70023          	sb	a3,64(a4) # 40001040 <_eusrstack+0x1fff9040>
d:\Electromic\business_card\StdPeriphDriver\inc/CH58x_sys.h:189
   R8_SAFE_ACCESS_SIG = SAFE_ACCESS_SIG2;
20000384:	fa800693          	li	a3,-88
20000388:	04d70023          	sb	a3,64(a4)
d:\Electromic\business_card\StdPeriphDriver\inc/CH58x_sys.h:190
   SAFEOPERATE;
2000038c:	0000100f          	fence.i
SetSysClock():
d:\Electromic\business_card\obj/../StdPeriphDriver/CH58x_sys.c:82
            R8_FLASH_CFG = 0X02;
20000390:	400026b7          	lui	a3,0x40002
20000394:	4609                	li	a2,2
20000396:	b5b5                	j	20000202 <SetSysClock+0x170>
sys_safe_access_enable():
d:\Electromic\business_card\StdPeriphDriver\inc/CH58x_sys.h:182
   if(read_csr(0x800)&0x08)
20000398:	80002773          	csrr	a4,0x800
2000039c:	8b21                	andi	a4,a4,8
2000039e:	cb09                	beqz	a4,200003b0 <SetSysClock+0x31e>
d:\Electromic\business_card\StdPeriphDriver\inc/CH58x_sys.h:184
       IRQ_STA = read_csr(0x800);
200003a0:	80002773          	csrr	a4,0x800
200003a4:	80e1a623          	sw	a4,-2036(gp) # 200009b4 <IRQ_STA>
d:\Electromic\business_card\StdPeriphDriver\inc/CH58x_sys.h:185
       write_csr(0x800, (IRQ_STA&(~0x08)));
200003a8:	4398                	lw	a4,0(a5)
200003aa:	9b5d                	andi	a4,a4,-9
200003ac:	80071073          	csrw	0x800,a4
d:\Electromic\business_card\StdPeriphDriver\inc/CH58x_sys.h:187
   SAFEOPERATE;
200003b0:	0000100f          	fence.i
d:\Electromic\business_card\StdPeriphDriver\inc/CH58x_sys.h:188
   R8_SAFE_ACCESS_SIG = SAFE_ACCESS_SIG1;
200003b4:	40001737          	lui	a4,0x40001
200003b8:	05700693          	li	a3,87
200003bc:	04d70023          	sb	a3,64(a4) # 40001040 <_eusrstack+0x1fff9040>
d:\Electromic\business_card\StdPeriphDriver\inc/CH58x_sys.h:189
   R8_SAFE_ACCESS_SIG = SAFE_ACCESS_SIG2;
200003c0:	fa800693          	li	a3,-88
200003c4:	04d70023          	sb	a3,64(a4)
d:\Electromic\business_card\StdPeriphDriver\inc/CH58x_sys.h:190
   SAFEOPERATE;
200003c8:	0000100f          	fence.i
SetSysClock():
d:\Electromic\business_card\obj/../StdPeriphDriver/CH58x_sys.c:88
            R8_FLASH_CFG = 0X52;
200003cc:	400026b7          	lui	a3,0x40002
200003d0:	05200613          	li	a2,82
200003d4:	b53d                	j	20000202 <SetSysClock+0x170>
sys_safe_access_enable():
d:\Electromic\business_card\StdPeriphDriver\inc/CH58x_sys.h:182
   if(read_csr(0x800)&0x08)
200003d6:	80002773          	csrr	a4,0x800
200003da:	8b21                	andi	a4,a4,8
200003dc:	cb09                	beqz	a4,200003ee <SetSysClock+0x35c>
d:\Electromic\business_card\StdPeriphDriver\inc/CH58x_sys.h:184
       IRQ_STA = read_csr(0x800);
200003de:	80002773          	csrr	a4,0x800
200003e2:	80e1a623          	sw	a4,-2036(gp) # 200009b4 <IRQ_STA>
d:\Electromic\business_card\StdPeriphDriver\inc/CH58x_sys.h:185
       write_csr(0x800, (IRQ_STA&(~0x08)));
200003e6:	4398                	lw	a4,0(a5)
200003e8:	9b5d                	andi	a4,a4,-9
200003ea:	80071073          	csrw	0x800,a4
d:\Electromic\business_card\StdPeriphDriver\inc/CH58x_sys.h:187
   SAFEOPERATE;
200003ee:	0000100f          	fence.i
d:\Electromic\business_card\StdPeriphDriver\inc/CH58x_sys.h:188
   R8_SAFE_ACCESS_SIG = SAFE_ACCESS_SIG1;
200003f2:	40001737          	lui	a4,0x40001
200003f6:	05700693          	li	a3,87
200003fa:	04d70023          	sb	a3,64(a4) # 40001040 <_eusrstack+0x1fff9040>
d:\Electromic\business_card\StdPeriphDriver\inc/CH58x_sys.h:189
   R8_SAFE_ACCESS_SIG = SAFE_ACCESS_SIG2;
200003fe:	fa800693          	li	a3,-88
20000402:	04d70023          	sb	a3,64(a4)
d:\Electromic\business_card\StdPeriphDriver\inc/CH58x_sys.h:190
   SAFEOPERATE;
20000406:	0000100f          	fence.i
SetSysClock():
d:\Electromic\business_card\obj/../StdPeriphDriver/CH58x_sys.c:95
        R16_CLK_SYS_CFG |= RB_CLK_SYS_MOD;
2000040a:	00875683          	lhu	a3,8(a4)
2000040e:	0c06e693          	ori	a3,a3,192
20000412:	00d71423          	sh	a3,8(a4)
20000416:	bbc5                	j	20000206 <SetSysClock+0x174>

20000418 <SYS_ResetExecute>:
SYS_ResetExecute():
d:\Electromic\business_card\obj/../StdPeriphDriver/CH58x_sys.c:164
 *
 * @return  none
 */
__HIGH_CODE
void SYS_ResetExecute(void)
{
20000418:	1141                	addi	sp,sp,-16
d:\Electromic\business_card\obj/../StdPeriphDriver/CH58x_sys.c:165
    FLASH_ROM_SW_RESET();
2000041a:	4681                	li	a3,0
2000041c:	4601                	li	a2,0
2000041e:	4581                	li	a1,0
20000420:	4511                	li	a0,4
d:\Electromic\business_card\obj/../StdPeriphDriver/CH58x_sys.c:164
{
20000422:	c606                	sw	ra,12(sp)
d:\Electromic\business_card\obj/../StdPeriphDriver/CH58x_sys.c:165
    FLASH_ROM_SW_RESET();
20000424:	2c19                	jal	2000063a <FLASH_EEPROM_CMD>
sys_safe_access_enable():
d:\Electromic\business_card\StdPeriphDriver\inc/CH58x_sys.h:182
   if(read_csr(0x800)&0x08)
20000426:	800027f3          	csrr	a5,0x800
2000042a:	8ba1                	andi	a5,a5,8
2000042c:	80c18693          	addi	a3,gp,-2036 # 200009b4 <IRQ_STA>
20000430:	cb89                	beqz	a5,20000442 <SYS_ResetExecute+0x2a>
d:\Electromic\business_card\StdPeriphDriver\inc/CH58x_sys.h:184
       IRQ_STA = read_csr(0x800);
20000432:	800027f3          	csrr	a5,0x800
20000436:	80f1a623          	sw	a5,-2036(gp) # 200009b4 <IRQ_STA>
d:\Electromic\business_card\StdPeriphDriver\inc/CH58x_sys.h:185
       write_csr(0x800, (IRQ_STA&(~0x08)));
2000043a:	429c                	lw	a5,0(a3)
2000043c:	9bdd                	andi	a5,a5,-9
2000043e:	80079073          	csrw	0x800,a5
d:\Electromic\business_card\StdPeriphDriver\inc/CH58x_sys.h:187
   SAFEOPERATE;
20000442:	0000100f          	fence.i
d:\Electromic\business_card\StdPeriphDriver\inc/CH58x_sys.h:188
   R8_SAFE_ACCESS_SIG = SAFE_ACCESS_SIG1;
20000446:	400017b7          	lui	a5,0x40001
2000044a:	05700713          	li	a4,87
2000044e:	04e78023          	sb	a4,64(a5) # 40001040 <_eusrstack+0x1fff9040>
d:\Electromic\business_card\StdPeriphDriver\inc/CH58x_sys.h:189
   R8_SAFE_ACCESS_SIG = SAFE_ACCESS_SIG2;
20000452:	fa800713          	li	a4,-88
20000456:	04e78023          	sb	a4,64(a5)
d:\Electromic\business_card\StdPeriphDriver\inc/CH58x_sys.h:190
   SAFEOPERATE;
2000045a:	0000100f          	fence.i
SYS_ResetExecute():
d:\Electromic\business_card\obj/../StdPeriphDriver/CH58x_sys.c:167
    sys_safe_access_enable();
    R8_RST_WDOG_CTRL |= RB_SOFTWARE_RESET;
2000045e:	0467c703          	lbu	a4,70(a5)
20000462:	00176713          	ori	a4,a4,1
20000466:	04e78323          	sb	a4,70(a5)
sys_safe_access_disable():
d:\Electromic\business_card\StdPeriphDriver\inc/CH58x_sys.h:195
   R8_SAFE_ACCESS_SIG = 0;
2000046a:	04078023          	sb	zero,64(a5)
d:\Electromic\business_card\StdPeriphDriver\inc/CH58x_sys.h:196
   write_csr(0x800, read_csr(0x800)|(IRQ_STA&0x08));
2000046e:	80002773          	csrr	a4,0x800
20000472:	429c                	lw	a5,0(a3)
20000474:	8ba1                	andi	a5,a5,8
20000476:	8fd9                	or	a5,a5,a4
20000478:	80079073          	csrw	0x800,a5
d:\Electromic\business_card\StdPeriphDriver\inc/CH58x_sys.h:197
   IRQ_STA = 0;
2000047c:	8001a623          	sw	zero,-2036(gp) # 200009b4 <IRQ_STA>
d:\Electromic\business_card\StdPeriphDriver\inc/CH58x_sys.h:198
   SAFEOPERATE;
20000480:	0000100f          	fence.i
SYS_ResetExecute():
d:\Electromic\business_card\obj/../StdPeriphDriver/CH58x_sys.c:169
    sys_safe_access_disable();
}
20000484:	40b2                	lw	ra,12(sp)
20000486:	0141                	addi	sp,sp,16
20000488:	8082                	ret

2000048a <HardFault_Handler>:
HardFault_Handler():
d:\Electromic\business_card\obj/../StdPeriphDriver/CH58x_sys.c:304
__INTERRUPT
__HIGH_CODE
__attribute__((weak))
void HardFault_Handler(void)
{
    FLASH_ROM_SW_RESET();
2000048a:	4681                	li	a3,0
2000048c:	4601                	li	a2,0
2000048e:	4581                	li	a1,0
20000490:	4511                	li	a0,4
20000492:	2265                	jal	2000063a <FLASH_EEPROM_CMD>
sys_safe_access_enable():
d:\Electromic\business_card\StdPeriphDriver\inc/CH58x_sys.h:182
   if(read_csr(0x800)&0x08)
20000494:	800027f3          	csrr	a5,0x800
20000498:	8ba1                	andi	a5,a5,8
2000049a:	80c18713          	addi	a4,gp,-2036 # 200009b4 <IRQ_STA>
2000049e:	cb89                	beqz	a5,200004b0 <HardFault_Handler+0x26>
d:\Electromic\business_card\StdPeriphDriver\inc/CH58x_sys.h:184
       IRQ_STA = read_csr(0x800);
200004a0:	800027f3          	csrr	a5,0x800
200004a4:	80f1a623          	sw	a5,-2036(gp) # 200009b4 <IRQ_STA>
d:\Electromic\business_card\StdPeriphDriver\inc/CH58x_sys.h:185
       write_csr(0x800, (IRQ_STA&(~0x08)));
200004a8:	431c                	lw	a5,0(a4)
200004aa:	9bdd                	andi	a5,a5,-9
200004ac:	80079073          	csrw	0x800,a5
d:\Electromic\business_card\StdPeriphDriver\inc/CH58x_sys.h:187
   SAFEOPERATE;
200004b0:	0000100f          	fence.i
d:\Electromic\business_card\StdPeriphDriver\inc/CH58x_sys.h:188
   R8_SAFE_ACCESS_SIG = SAFE_ACCESS_SIG1;
200004b4:	400017b7          	lui	a5,0x40001
200004b8:	05700693          	li	a3,87
200004bc:	04d78023          	sb	a3,64(a5) # 40001040 <_eusrstack+0x1fff9040>
d:\Electromic\business_card\StdPeriphDriver\inc/CH58x_sys.h:189
   R8_SAFE_ACCESS_SIG = SAFE_ACCESS_SIG2;
200004c0:	fa800693          	li	a3,-88
200004c4:	04d78023          	sb	a3,64(a5)
d:\Electromic\business_card\StdPeriphDriver\inc/CH58x_sys.h:190
   SAFEOPERATE;
200004c8:	0000100f          	fence.i
HardFault_Handler():
d:\Electromic\business_card\obj/../StdPeriphDriver/CH58x_sys.c:306
    sys_safe_access_enable();
    R16_INT32K_TUNE = 0xFFFF;
200004cc:	56fd                	li	a3,-1
200004ce:	02d79623          	sh	a3,44(a5)
sys_safe_access_disable():
d:\Electromic\business_card\StdPeriphDriver\inc/CH58x_sys.h:195
   R8_SAFE_ACCESS_SIG = 0;
200004d2:	04078023          	sb	zero,64(a5)
d:\Electromic\business_card\StdPeriphDriver\inc/CH58x_sys.h:196
   write_csr(0x800, read_csr(0x800)|(IRQ_STA&0x08));
200004d6:	800026f3          	csrr	a3,0x800
200004da:	431c                	lw	a5,0(a4)
200004dc:	8ba1                	andi	a5,a5,8
200004de:	8fd5                	or	a5,a5,a3
200004e0:	80079073          	csrw	0x800,a5
d:\Electromic\business_card\StdPeriphDriver\inc/CH58x_sys.h:197
   IRQ_STA = 0;
200004e4:	8001a623          	sw	zero,-2036(gp) # 200009b4 <IRQ_STA>
d:\Electromic\business_card\StdPeriphDriver\inc/CH58x_sys.h:198
   SAFEOPERATE;
200004e8:	0000100f          	fence.i
sys_safe_access_enable():
d:\Electromic\business_card\StdPeriphDriver\inc/CH58x_sys.h:182
   if(read_csr(0x800)&0x08)
200004ec:	800027f3          	csrr	a5,0x800
200004f0:	8ba1                	andi	a5,a5,8
200004f2:	cb89                	beqz	a5,20000504 <HardFault_Handler+0x7a>
d:\Electromic\business_card\StdPeriphDriver\inc/CH58x_sys.h:184
       IRQ_STA = read_csr(0x800);
200004f4:	800027f3          	csrr	a5,0x800
200004f8:	80f1a623          	sw	a5,-2036(gp) # 200009b4 <IRQ_STA>
d:\Electromic\business_card\StdPeriphDriver\inc/CH58x_sys.h:185
       write_csr(0x800, (IRQ_STA&(~0x08)));
200004fc:	431c                	lw	a5,0(a4)
200004fe:	9bdd                	andi	a5,a5,-9
20000500:	80079073          	csrw	0x800,a5
d:\Electromic\business_card\StdPeriphDriver\inc/CH58x_sys.h:187
   SAFEOPERATE;
20000504:	0000100f          	fence.i
d:\Electromic\business_card\StdPeriphDriver\inc/CH58x_sys.h:188
   R8_SAFE_ACCESS_SIG = SAFE_ACCESS_SIG1;
20000508:	400017b7          	lui	a5,0x40001
2000050c:	05700693          	li	a3,87
20000510:	04d78023          	sb	a3,64(a5) # 40001040 <_eusrstack+0x1fff9040>
d:\Electromic\business_card\StdPeriphDriver\inc/CH58x_sys.h:189
   R8_SAFE_ACCESS_SIG = SAFE_ACCESS_SIG2;
20000514:	fa800693          	li	a3,-88
20000518:	04d78023          	sb	a3,64(a5)
d:\Electromic\business_card\StdPeriphDriver\inc/CH58x_sys.h:190
   SAFEOPERATE;
2000051c:	0000100f          	fence.i
HardFault_Handler():
d:\Electromic\business_card\obj/../StdPeriphDriver/CH58x_sys.c:309
	sys_safe_access_disable();
    sys_safe_access_enable();
    R8_RST_WDOG_CTRL |= RB_SOFTWARE_RESET;
20000520:	0467c683          	lbu	a3,70(a5)
20000524:	0016e693          	ori	a3,a3,1
20000528:	04d78323          	sb	a3,70(a5)
sys_safe_access_disable():
d:\Electromic\business_card\StdPeriphDriver\inc/CH58x_sys.h:195
   R8_SAFE_ACCESS_SIG = 0;
2000052c:	04078023          	sb	zero,64(a5)
d:\Electromic\business_card\StdPeriphDriver\inc/CH58x_sys.h:196
   write_csr(0x800, read_csr(0x800)|(IRQ_STA&0x08));
20000530:	800026f3          	csrr	a3,0x800
20000534:	431c                	lw	a5,0(a4)
20000536:	8ba1                	andi	a5,a5,8
20000538:	8fd5                	or	a5,a5,a3
2000053a:	80079073          	csrw	0x800,a5
d:\Electromic\business_card\StdPeriphDriver\inc/CH58x_sys.h:197
   IRQ_STA = 0;
2000053e:	8001a623          	sw	zero,-2036(gp) # 200009b4 <IRQ_STA>
d:\Electromic\business_card\StdPeriphDriver\inc/CH58x_sys.h:198
   SAFEOPERATE;
20000542:	0000100f          	fence.i
HardFault_Handler():
d:\Electromic\business_card\obj/../StdPeriphDriver/CH58x_sys.c:311 (discriminator 1)
    sys_safe_access_disable();
    while(1);
20000546:	a001                	j	20000546 <HardFault_Handler+0xbc>

20000548 <mDelayuS>:
mDelayuS():
d:\Electromic\business_card\obj/../StdPeriphDriver/CH58x_sys.c:330
{
    uint32_t i;
#if(FREQ_SYS == 80000000)
    i = t * 20;
#elif(FREQ_SYS == 60000000)
    i = t * 15;
20000548:	47bd                	li	a5,15
2000054a:	02f50533          	mul	a0,a0,a5
d:\Electromic\business_card\obj/../StdPeriphDriver/CH58x_sys.c:354 (discriminator 1)
#else
    i = t << 1;
#endif
    do
    {
        __nop();
2000054e:	0001                	nop
d:\Electromic\business_card\obj/../StdPeriphDriver/CH58x_sys.c:355 (discriminator 1)
    } while(--i);
20000550:	157d                	addi	a0,a0,-1
20000552:	fd75                	bnez	a0,2000054e <mDelayuS+0x6>
d:\Electromic\business_card\obj/../StdPeriphDriver/CH58x_sys.c:356
}
20000554:	8082                	ret

20000556 <mDelaymS>:
mDelaymS():
d:\Electromic\business_card\obj/../StdPeriphDriver/CH58x_sys.c:369
 *
 * @return  none
 */
__HIGH_CODE
void mDelaymS(uint16_t t)
{
20000556:	1141                	addi	sp,sp,-16
20000558:	c422                	sw	s0,8(sp)
2000055a:	c226                	sw	s1,4(sp)
2000055c:	c606                	sw	ra,12(sp)
2000055e:	84aa                	mv	s1,a0
d:\Electromic\business_card\obj/../StdPeriphDriver/CH58x_sys.c:372
    uint16_t i;

    for(i = 0; i < t; i++)
20000560:	4401                	li	s0,0
d:\Electromic\business_card\obj/../StdPeriphDriver/CH58x_sys.c:372 (discriminator 1)
20000562:	00941763          	bne	s0,s1,20000570 <mDelaymS+0x1a>
d:\Electromic\business_card\obj/../StdPeriphDriver/CH58x_sys.c:376
    {
        mDelayuS(1000);
    }
}
20000566:	40b2                	lw	ra,12(sp)
20000568:	4422                	lw	s0,8(sp)
2000056a:	4492                	lw	s1,4(sp)
2000056c:	0141                	addi	sp,sp,16
2000056e:	8082                	ret
d:\Electromic\business_card\obj/../StdPeriphDriver/CH58x_sys.c:372 (discriminator 3)
    for(i = 0; i < t; i++)
20000570:	0405                	addi	s0,s0,1
d:\Electromic\business_card\obj/../StdPeriphDriver/CH58x_sys.c:374 (discriminator 3)
        mDelayuS(1000);
20000572:	3e800513          	li	a0,1000
d:\Electromic\business_card\obj/../StdPeriphDriver/CH58x_sys.c:372 (discriminator 3)
    for(i = 0; i < t; i++)
20000576:	0442                	slli	s0,s0,0x10
d:\Electromic\business_card\obj/../StdPeriphDriver/CH58x_sys.c:374 (discriminator 3)
        mDelayuS(1000);
20000578:	3fc1                	jal	20000548 <mDelayuS>
d:\Electromic\business_card\obj/../StdPeriphDriver/CH58x_sys.c:372 (discriminator 3)
    for(i = 0; i < t; i++)
2000057a:	8041                	srli	s0,s0,0x10
2000057c:	b7dd                	j	20000562 <mDelaymS+0xc>

2000057e <FLASH_ROM_BEG>:
FLASH_ROM_BEG():
2000057e:	80040323          	sb	zero,-2042(s0)
20000582:	4715                	li	a4,5
20000584:	80e40323          	sb	a4,-2042(s0)
20000588:	0001                	nop
2000058a:	80a40223          	sb	a0,-2044(s0)
2000058e:	8082                	ret

20000590 <FLASH_ROM_END>:
FLASH_ROM_END():
20000590:	80640783          	lb	a5,-2042(s0)
20000594:	fe07cee3          	bltz	a5,20000590 <FLASH_ROM_END>
20000598:	80040323          	sb	zero,-2042(s0)
2000059c:	8082                	ret

2000059e <FLASH_ROM_IN>:
FLASH_ROM_IN():
2000059e:	80640783          	lb	a5,-2042(s0)
200005a2:	fe07cee3          	bltz	a5,2000059e <FLASH_ROM_IN>
200005a6:	80444503          	lbu	a0,-2044(s0)
200005aa:	8082                	ret

200005ac <FLASH_ROM_OUT>:
FLASH_ROM_OUT():
200005ac:	80640783          	lb	a5,-2042(s0)
200005b0:	fe07cee3          	bltz	a5,200005ac <FLASH_ROM_OUT>
200005b4:	80a40223          	sb	a0,-2044(s0)
200005b8:	8082                	ret

200005ba <FLASH_ROM_ADDR>:
FLASH_ROM_ADDR():
200005ba:	1141                	addi	sp,sp,-16
200005bc:	c426                	sw	s1,8(sp)
200005be:	c24a                	sw	s2,4(sp)
200005c0:	c04e                	sw	s3,0(sp)
200005c2:	c606                	sw	ra,12(sp)
200005c4:	0bf57713          	andi	a4,a0,191
200005c8:	47ad                	li	a5,11
200005ca:	89aa                	mv	s3,a0
200005cc:	892e                	mv	s2,a1
200005ce:	4495                	li	s1,5
200005d0:	00f70663          	beq	a4,a5,200005dc <FLASH_ROM_ADDR+0x22>
200005d4:	4519                	li	a0,6
200005d6:	3765                	jal	2000057e <FLASH_ROM_BEG>
200005d8:	3f65                	jal	20000590 <FLASH_ROM_END>
200005da:	448d                	li	s1,3
200005dc:	854e                	mv	a0,s3
200005de:	3745                	jal	2000057e <FLASH_ROM_BEG>
200005e0:	59fd                	li	s3,-1
200005e2:	14fd                	addi	s1,s1,-1
200005e4:	01349863          	bne	s1,s3,200005f4 <FLASH_ROM_ADDR+0x3a>
200005e8:	40b2                	lw	ra,12(sp)
200005ea:	44a2                	lw	s1,8(sp)
200005ec:	4912                	lw	s2,4(sp)
200005ee:	4982                	lw	s3,0(sp)
200005f0:	0141                	addi	sp,sp,16
200005f2:	8082                	ret
200005f4:	01095513          	srli	a0,s2,0x10
200005f8:	0ff57513          	andi	a0,a0,255
200005fc:	3f45                	jal	200005ac <FLASH_ROM_OUT>
200005fe:	0922                	slli	s2,s2,0x8
20000600:	b7cd                	j	200005e2 <FLASH_ROM_ADDR+0x28>

20000602 <FLASH_ROM_WAIT>:
FLASH_ROM_WAIT():
20000602:	1101                	addi	sp,sp,-32
20000604:	cc26                	sw	s1,24(sp)
20000606:	ce06                	sw	ra,28(sp)
20000608:	000804b7          	lui	s1,0x80
2000060c:	3751                	jal	20000590 <FLASH_ROM_END>
2000060e:	4515                	li	a0,5
20000610:	37bd                	jal	2000057e <FLASH_ROM_BEG>
20000612:	3771                	jal	2000059e <FLASH_ROM_IN>
20000614:	3769                	jal	2000059e <FLASH_ROM_IN>
20000616:	c62a                	sw	a0,12(sp)
20000618:	3fa5                	jal	20000590 <FLASH_ROM_END>
2000061a:	4532                	lw	a0,12(sp)
2000061c:	00157793          	andi	a5,a0,1
20000620:	eb89                	bnez	a5,20000632 <FLASH_ROM_WAIT+0x30>
20000622:	00156513          	ori	a0,a0,1
20000626:	0ff57513          	andi	a0,a0,255
2000062a:	40f2                	lw	ra,28(sp)
2000062c:	44e2                	lw	s1,24(sp)
2000062e:	6105                	addi	sp,sp,32
20000630:	8082                	ret
20000632:	14fd                	addi	s1,s1,-1
20000634:	fce9                	bnez	s1,2000060e <FLASH_ROM_WAIT+0xc>
20000636:	4501                	li	a0,0
20000638:	bfcd                	j	2000062a <FLASH_ROM_WAIT+0x28>

2000063a <FLASH_EEPROM_CMD>:
FLASH_EEPROM_CMD():
2000063a:	7139                	addi	sp,sp,-64
2000063c:	dc26                	sw	s1,56(sp)
2000063e:	da4a                	sw	s2,52(sp)
20000640:	d84e                	sw	s3,48(sp)
20000642:	d652                	sw	s4,44(sp)
20000644:	d456                	sw	s5,40(sp)
20000646:	d25a                	sw	s6,36(sp)
20000648:	d05e                	sw	s7,32(sp)
2000064a:	de06                	sw	ra,60(sp)
2000064c:	ce62                	sw	s8,28(sp)
2000064e:	cc66                	sw	s9,24(sp)
20000650:	e000e7b7          	lui	a5,0xe000e
20000654:	577d                	li	a4,-1
20000656:	0007aa83          	lw	s5,0(a5) # e000e000 <_eusrstack+0xc0006000>
2000065a:	c622                	sw	s0,12(sp)
2000065c:	0047aa03          	lw	s4,4(a5)
20000660:	18e7a023          	sw	a4,384(a5)
20000664:	18e7a223          	sw	a4,388(a5)
20000668:	400017b7          	lui	a5,0x40001
2000066c:	05700713          	li	a4,87
20000670:	04e78023          	sb	a4,64(a5) # 40001040 <_eusrstack+0x1fff9040>
20000674:	fa800713          	li	a4,-88
20000678:	04e78023          	sb	a4,64(a5)
2000067c:	0447c783          	lbu	a5,68(a5)
20000680:	ff750b93          	addi	s7,a0,-9
20000684:	84b6                	mv	s1,a3
20000686:	07e2                	slli	a5,a5,0x18
20000688:	0ffbfb93          	andi	s7,s7,255
2000068c:	4685                	li	a3,1
2000068e:	89aa                	mv	s3,a0
20000690:	8b2e                	mv	s6,a1
20000692:	8932                	mv	s2,a2
20000694:	40002437          	lui	s0,0x40002
20000698:	87e1                	srai	a5,a5,0x18
2000069a:	5701                	li	a4,-32
2000069c:	0176fa63          	bgeu	a3,s7,200006b0 <FLASH_EEPROM_CMD+0x76>
200006a0:	00d50863          	beq	a0,a3,200006b0 <FLASH_EEPROM_CMD+0x76>
200006a4:	4689                	li	a3,2
200006a6:	02000713          	li	a4,32
200006aa:	00d51363          	bne	a0,a3,200006b0 <FLASH_EEPROM_CMD+0x76>
200006ae:	5701                	li	a4,-32
200006b0:	8fd9                	or	a5,a5,a4
200006b2:	0ff7f793          	andi	a5,a5,255
200006b6:	40001cb7          	lui	s9,0x40001
200006ba:	04fc8223          	sb	a5,68(s9) # 40001044 <_eusrstack+0x1fff9044>
200006be:	4711                	li	a4,4
200006c0:	80e40323          	sb	a4,-2042(s0) # 40001806 <_eusrstack+0x1fff9806>
200006c4:	0ff00513          	li	a0,255
200006c8:	3d5d                	jal	2000057e <FLASH_ROM_BEG>
200006ca:	4c09                	li	s8,2
200006cc:	35d1                	jal	20000590 <FLASH_ROM_END>
200006ce:	117c6d63          	bltu	s8,s7,200007e8 <FLASH_EEPROM_CMD+0x1ae>
200006d2:	000705b7          	lui	a1,0x70
200006d6:	95da                	add	a1,a1,s6
200006d8:	00078737          	lui	a4,0x78
200006dc:	5579                	li	a0,-2
200006de:	04e5f263          	bgeu	a1,a4,20000722 <FLASH_EEPROM_CMD+0xe8>
200006e2:	009587b3          	add	a5,a1,s1
200006e6:	02f76e63          	bltu	a4,a5,20000722 <FLASH_EEPROM_CMD+0xe8>
200006ea:	00080b37          	lui	s6,0x80
200006ee:	47a9                	li	a5,10
200006f0:	0165eb33          	or	s6,a1,s6
200006f4:	06f99963          	bne	s3,a5,20000766 <FLASH_EEPROM_CMD+0x12c>
200006f8:	e489                	bnez	s1,20000702 <FLASH_EEPROM_CMD+0xc8>
200006fa:	4481                	li	s1,0
200006fc:	3d51                	jal	20000590 <FLASH_ROM_END>
200006fe:	8526                	mv	a0,s1
20000700:	a00d                	j	20000722 <FLASH_EEPROM_CMD+0xe8>
20000702:	85da                	mv	a1,s6
20000704:	4509                	li	a0,2
20000706:	3d55                	jal	200005ba <FLASH_ROM_ADDR>
20000708:	0905                	addi	s2,s2,1
2000070a:	fff94503          	lbu	a0,-1(s2)
2000070e:	14fd                	addi	s1,s1,-1
20000710:	0b05                	addi	s6,s6,1
20000712:	3d69                	jal	200005ac <FLASH_ROM_OUT>
20000714:	c481                	beqz	s1,2000071c <FLASH_EEPROM_CMD+0xe2>
20000716:	0ffb7793          	andi	a5,s6,255
2000071a:	f7fd                	bnez	a5,20000708 <FLASH_EEPROM_CMD+0xce>
2000071c:	35dd                	jal	20000602 <FLASH_ROM_WAIT>
2000071e:	fd69                	bnez	a0,200006f8 <FLASH_EEPROM_CMD+0xbe>
20000720:	557d                	li	a0,-1
20000722:	400017b7          	lui	a5,0x40001
20000726:	05700713          	li	a4,87
2000072a:	04e78023          	sb	a4,64(a5) # 40001040 <_eusrstack+0x1fff9040>
2000072e:	fa800713          	li	a4,-88
20000732:	04e78023          	sb	a4,64(a5)
20000736:	0447c703          	lbu	a4,68(a5)
2000073a:	8b41                	andi	a4,a4,16
2000073c:	04e78223          	sb	a4,68(a5)
20000740:	50f2                	lw	ra,60(sp)
20000742:	e000e7b7          	lui	a5,0xe000e
20000746:	1157a023          	sw	s5,256(a5) # e000e100 <_eusrstack+0xc0006100>
2000074a:	1147a223          	sw	s4,260(a5)
2000074e:	54e2                	lw	s1,56(sp)
20000750:	4432                	lw	s0,12(sp)
20000752:	5952                	lw	s2,52(sp)
20000754:	59c2                	lw	s3,48(sp)
20000756:	5a32                	lw	s4,44(sp)
20000758:	5aa2                	lw	s5,40(sp)
2000075a:	5b12                	lw	s6,36(sp)
2000075c:	5b82                	lw	s7,32(sp)
2000075e:	4c72                	lw	s8,28(sp)
20000760:	4ce2                	lw	s9,24(sp)
20000762:	6121                	addi	sp,sp,64
20000764:	8082                	ret
20000766:	47a5                	li	a5,9
20000768:	06f99563          	bne	s3,a5,200007d2 <FLASH_EEPROM_CMD+0x198>
2000076c:	6985                	lui	s3,0x1
2000076e:	0ff00913          	li	s2,255
20000772:	009906b3          	add	a3,s2,s1
20000776:	012b74b3          	and	s1,s6,s2
2000077a:	94b6                	add	s1,s1,a3
2000077c:	fff94913          	not	s2,s2
20000780:	009974b3          	and	s1,s2,s1
20000784:	6b85                	lui	s7,0x1
20000786:	01697933          	and	s2,s2,s6
2000078a:	6b41                	lui	s6,0x10
2000078c:	fff98793          	addi	a5,s3,-1 # fff <GPIOAGPPCfg+0x11>
20000790:	0127f7b3          	and	a5,a5,s2
20000794:	e399                	bnez	a5,2000079a <FLASH_EEPROM_CMD+0x160>
20000796:	0134fc63          	bgeu	s1,s3,200007ae <FLASH_EEPROM_CMD+0x174>
2000079a:	0049d993          	srli	s3,s3,0x4
2000079e:	47c1                	li	a5,16
200007a0:	ff37e6e3          	bltu	a5,s3,2000078c <FLASH_EEPROM_CMD+0x152>
200007a4:	bf99                	j	200006fa <FLASH_EEPROM_CMD+0xc0>
200007a6:	6905                	lui	s2,0x1
200007a8:	69c1                	lui	s3,0x10
200007aa:	197d                	addi	s2,s2,-1
200007ac:	b7d9                	j	20000772 <FLASH_EEPROM_CMD+0x138>
200007ae:	0d800513          	li	a0,216
200007b2:	01698863          	beq	s3,s6,200007c2 <FLASH_EEPROM_CMD+0x188>
200007b6:	02000513          	li	a0,32
200007ba:	01798463          	beq	s3,s7,200007c2 <FLASH_EEPROM_CMD+0x188>
200007be:	08100513          	li	a0,129
200007c2:	85ca                	mv	a1,s2
200007c4:	3bdd                	jal	200005ba <FLASH_ROM_ADDR>
200007c6:	3d35                	jal	20000602 <FLASH_ROM_WAIT>
200007c8:	dd21                	beqz	a0,20000720 <FLASH_EEPROM_CMD+0xe6>
200007ca:	994e                	add	s2,s2,s3
200007cc:	413484b3          	sub	s1,s1,s3
200007d0:	b7d9                	j	20000796 <FLASH_EEPROM_CMD+0x15c>
200007d2:	85da                	mv	a1,s6
200007d4:	452d                	li	a0,11
200007d6:	33d5                	jal	200005ba <FLASH_ROM_ADDR>
200007d8:	94ca                	add	s1,s1,s2
200007da:	f29900e3          	beq	s2,s1,200006fa <FLASH_EEPROM_CMD+0xc0>
200007de:	0905                	addi	s2,s2,1
200007e0:	3b7d                	jal	2000059e <FLASH_ROM_IN>
200007e2:	fea90fa3          	sb	a0,-1(s2) # fff <GPIOAGPPCfg+0x11>
200007e6:	bfd5                	j	200007da <FLASH_EEPROM_CMD+0x1a0>
200007e8:	fff98793          	addi	a5,s3,-1 # ffff <_data_lma+0xeeeb>
200007ec:	0ff7f793          	andi	a5,a5,255
200007f0:	0cfc6163          	bltu	s8,a5,200008b2 <.loop402+0x7a>
200007f4:	041cc783          	lbu	a5,65(s9)
200007f8:	08300713          	li	a4,131
200007fc:	04f71f63          	bne	a4,a5,2000085a <.loop402+0x22>
20000800:	00080737          	lui	a4,0x80
20000804:	04eb6b63          	bltu	s6,a4,2000085a <.loop402+0x22>
20000808:	009b07b3          	add	a5,s6,s1
2000080c:	001006b7          	lui	a3,0x100
20000810:	04d7f563          	bgeu	a5,a3,2000085a <.loop402+0x22>
20000814:	00eb4b33          	xor	s6,s6,a4
20000818:	4789                	li	a5,2
2000081a:	06f99363          	bne	s3,a5,20000880 <.loop402+0x48>
2000081e:	8089                	srli	s1,s1,0x2
20000820:	49d5                	li	s3,21
20000822:	ec048ce3          	beqz	s1,200006fa <FLASH_EEPROM_CMD+0xc0>
20000826:	85da                	mv	a1,s6
20000828:	4509                	li	a0,2
2000082a:	3b41                	jal	200005ba <FLASH_ROM_ADDR>
2000082c:	0911                	addi	s2,s2,4
2000082e:	ffc92703          	lw	a4,-4(s2)
20000832:	4791                	li	a5,4
20000834:	80e42023          	sw	a4,-2048(s0)

20000838 <.loop402>:
20000838:	80640703          	lb	a4,-2042(s0)
2000083c:	fe074ee3          	bltz	a4,20000838 <.loop402>
20000840:	81340323          	sb	s3,-2042(s0)
20000844:	17fd                	addi	a5,a5,-1
20000846:	fbed                	bnez	a5,20000838 <.loop402>
20000848:	14fd                	addi	s1,s1,-1
2000084a:	0b11                	addi	s6,s6,4
2000084c:	c481                	beqz	s1,20000854 <.loop402+0x1c>
2000084e:	0ffb7793          	andi	a5,s6,255
20000852:	ffe9                	bnez	a5,2000082c <FLASH_EEPROM_CMD+0x1f2>
20000854:	337d                	jal	20000602 <FLASH_ROM_WAIT>
20000856:	f571                	bnez	a0,20000822 <FLASH_EEPROM_CMD+0x1e8>
20000858:	b5e1                	j	20000720 <FLASH_EEPROM_CMD+0xe6>
2000085a:	400017b7          	lui	a5,0x40001
2000085e:	0457c703          	lbu	a4,69(a5) # 40001045 <_eusrstack+0x1fff9045>
20000862:	000807b7          	lui	a5,0x80
20000866:	02077713          	andi	a4,a4,32
2000086a:	e319                	bnez	a4,20000870 <.loop402+0x38>
2000086c:	000787b7          	lui	a5,0x78
20000870:	5579                	li	a0,-2
20000872:	eafb78e3          	bgeu	s6,a5,20000722 <FLASH_EEPROM_CMD+0xe8>
20000876:	009b0733          	add	a4,s6,s1
2000087a:	f8e7ffe3          	bgeu	a5,a4,20000818 <FLASH_EEPROM_CMD+0x1de>
2000087e:	b555                	j	20000722 <FLASH_EEPROM_CMD+0xe8>
20000880:	4785                	li	a5,1
20000882:	f2f982e3          	beq	s3,a5,200007a6 <FLASH_EEPROM_CMD+0x16c>
20000886:	85da                	mv	a1,s6
20000888:	452d                	li	a0,11
2000088a:	3b05                	jal	200005ba <FLASH_ROM_ADDR>
2000088c:	fff48993          	addi	s3,s1,-1 # 7ffff <_data_lma+0x7eeeb>
20000890:	e60485e3          	beqz	s1,200006fa <FLASH_EEPROM_CMD+0xc0>
20000894:	3329                	jal	2000059e <FLASH_ROM_IN>
20000896:	0039f793          	andi	a5,s3,3
2000089a:	eb91                	bnez	a5,200008ae <.loop402+0x76>
2000089c:	80042683          	lw	a3,-2048(s0)
200008a0:	00092703          	lw	a4,0(s2)
200008a4:	00490793          	addi	a5,s2,4
200008a8:	e4e69ae3          	bne	a3,a4,200006fc <FLASH_EEPROM_CMD+0xc2>
200008ac:	893e                	mv	s2,a5
200008ae:	84ce                	mv	s1,s3
200008b0:	bff1                	j	2000088c <.loop402+0x54>
200008b2:	47b5                	li	a5,13
200008b4:	00f99663          	bne	s3,a5,200008c0 <.loop402+0x88>
200008b8:	0b900513          	li	a0,185
200008bc:	31c9                	jal	2000057e <FLASH_ROM_BEG>
200008be:	bd35                	j	200006fa <FLASH_EEPROM_CMD+0xc0>
200008c0:	47b1                	li	a5,12
200008c2:	0ab00513          	li	a0,171
200008c6:	fef98be3          	beq	s3,a5,200008bc <.loop402+0x84>
200008ca:	4799                	li	a5,6
200008cc:	04f99163          	bne	s3,a5,2000090e <.loop402+0xd6>
200008d0:	000805b7          	lui	a1,0x80
200008d4:	00bb65b3          	or	a1,s6,a1
200008d8:	452d                	li	a0,11
200008da:	31c5                	jal	200005ba <FLASH_ROM_ADDR>
200008dc:	4481                	li	s1,0
200008de:	4b8d                	li	s7,3
200008e0:	49a1                	li	s3,8
200008e2:	3975                	jal	2000059e <FLASH_ROM_IN>
200008e4:	01749663          	bne	s1,s7,200008f0 <.loop402+0xb8>
200008e8:	80042783          	lw	a5,-2048(s0)
200008ec:	00f92023          	sw	a5,0(s2)
200008f0:	0485                	addi	s1,s1,1
200008f2:	ff3498e3          	bne	s1,s3,200008e2 <.loop402+0xaa>
200008f6:	80042783          	lw	a5,-2048(s0)
200008fa:	012b1713          	slli	a4,s6,0x12
200008fe:	00075563          	bgez	a4,20000908 <.loop402+0xd0>
20000902:	00f91223          	sh	a5,4(s2)
20000906:	bbd5                	j	200006fa <FLASH_EEPROM_CMD+0xc0>
20000908:	00f92223          	sw	a5,4(s2)
2000090c:	b3fd                	j	200006fa <FLASH_EEPROM_CMD+0xc0>
2000090e:	479d                	li	a5,7
20000910:	02f99963          	bne	s3,a5,20000942 <.loop402+0x10a>
20000914:	4581                	li	a1,0
20000916:	04b00513          	li	a0,75
2000091a:	3145                	jal	200005ba <FLASH_ROM_ADDR>
2000091c:	44bd                	li	s1,15
2000091e:	00092023          	sw	zero,0(s2)
20000922:	00092223          	sw	zero,4(s2)
20000926:	59fd                	li	s3,-1
20000928:	399d                	jal	2000059e <FLASH_ROM_IN>
2000092a:	0074f793          	andi	a5,s1,7
2000092e:	97ca                	add	a5,a5,s2
20000930:	0007c703          	lbu	a4,0(a5) # 78000 <_data_lma+0x76eec>
20000934:	14fd                	addi	s1,s1,-1
20000936:	8d39                	xor	a0,a0,a4
20000938:	00a78023          	sb	a0,0(a5)
2000093c:	ff3496e3          	bne	s1,s3,20000928 <.loop402+0xf0>
20000940:	bb6d                	j	200006fa <FLASH_EEPROM_CMD+0xc0>
20000942:	47a1                	li	a5,8
20000944:	04f99263          	bne	s3,a5,20000988 <.loop402+0x150>
20000948:	396d                	jal	20000602 <FLASH_ROM_WAIT>
2000094a:	4481                	li	s1,0
2000094c:	000b0d63          	beqz	s6,20000966 <.loop402+0x12e>
20000950:	478d                	li	a5,3
20000952:	03c00493          	li	s1,60
20000956:	00fb0863          	beq	s6,a5,20000966 <.loop402+0x12e>
2000095a:	05000493          	li	s1,80
2000095e:	018b0463          	beq	s6,s8,20000966 <.loop402+0x12e>
20000962:	04400493          	li	s1,68
20000966:	07c57513          	andi	a0,a0,124
2000096a:	d89508e3          	beq	a0,s1,200006fa <FLASH_EEPROM_CMD+0xc0>
2000096e:	4519                	li	a0,6
20000970:	3139                	jal	2000057e <FLASH_ROM_BEG>
20000972:	3939                	jal	20000590 <FLASH_ROM_END>
20000974:	4505                	li	a0,1
20000976:	3121                	jal	2000057e <FLASH_ROM_BEG>
20000978:	8526                	mv	a0,s1
2000097a:	390d                	jal	200005ac <FLASH_ROM_OUT>
2000097c:	4509                	li	a0,2
2000097e:	313d                	jal	200005ac <FLASH_ROM_OUT>
20000980:	3149                	jal	20000602 <FLASH_ROM_WAIT>
20000982:	d6051ce3          	bnez	a0,200006fa <FLASH_EEPROM_CMD+0xc0>
20000986:	bb69                	j	20000720 <FLASH_EEPROM_CMD+0xe6>
20000988:	4791                	li	a5,4
2000098a:	00f99963          	bne	s3,a5,2000099c <.loop402+0x164>
2000098e:	06600513          	li	a0,102
20000992:	36f5                	jal	2000057e <FLASH_ROM_BEG>
20000994:	3ef5                	jal	20000590 <FLASH_ROM_END>
20000996:	09900513          	li	a0,153
2000099a:	b70d                	j	200008bc <.loop402+0x84>
2000099c:	d4098fe3          	beqz	s3,200006fa <FLASH_EEPROM_CMD+0xc0>
200009a0:	54f1                	li	s1,-4
200009a2:	bba9                	j	200006fc <FLASH_EEPROM_CMD+0xc2>

Disassembly of section .text:

000009a8 <handle_reset>:
handle_reset():
d:\Electromic\business_card\obj/../Startup/startup_CH583.S:129
	.weak	handle_reset
	.align	1
handle_reset:
.option push 
.option	norelax 
	la gp, __global_pointer$
     9a8:	20001197          	auipc	gp,0x20001
     9ac:	80018193          	addi	gp,gp,-2048 # 200011a8 <__global_pointer$>
d:\Electromic\business_card\obj/../Startup/startup_CH583.S:132
.option	pop 
1:
	la sp, _eusrstack 
     9b0:	20007117          	auipc	sp,0x20007
     9b4:	65010113          	addi	sp,sp,1616 # 20008000 <_eusrstack>
d:\Electromic\business_card\obj/../Startup/startup_CH583.S:136

/* Load highcode code  section from flash to RAM */
2:
    la a0, _highcode_lma
     9b8:	00400513          	li	a0,4
d:\Electromic\business_card\obj/../Startup/startup_CH583.S:137
    la a1, _highcode_vma_start
     9bc:	1ffff597          	auipc	a1,0x1ffff
     9c0:	64458593          	addi	a1,a1,1604 # 20000000 <_highcode_vma_start>
d:\Electromic\business_card\obj/../Startup/startup_CH583.S:138
    la a2, _highcode_vma_end
     9c4:	20000617          	auipc	a2,0x20000
     9c8:	fe060613          	addi	a2,a2,-32 # 200009a4 <_highcode_vma_end>
d:\Electromic\business_card\obj/../Startup/startup_CH583.S:139
    bgeu a1, a2, 2f
     9cc:	00c5fa63          	bgeu	a1,a2,9e0 <handle_reset+0x38>
d:\Electromic\business_card\obj/../Startup/startup_CH583.S:141
1:
    lw t0, (a0)
     9d0:	00052283          	lw	t0,0(a0)
d:\Electromic\business_card\obj/../Startup/startup_CH583.S:142
    sw t0, (a1)
     9d4:	0055a023          	sw	t0,0(a1)
d:\Electromic\business_card\obj/../Startup/startup_CH583.S:143
    addi a0, a0, 4
     9d8:	0511                	addi	a0,a0,4
d:\Electromic\business_card\obj/../Startup/startup_CH583.S:144
    addi a1, a1, 4
     9da:	0591                	addi	a1,a1,4
d:\Electromic\business_card\obj/../Startup/startup_CH583.S:145
    bltu a1, a2, 1b
     9dc:	fec5eae3          	bltu	a1,a2,9d0 <handle_reset+0x28>
d:\Electromic\business_card\obj/../Startup/startup_CH583.S:149

/* Load data section from flash to RAM */
2:
	la a0, _data_lma
     9e0:	00000517          	auipc	a0,0x0
     9e4:	73450513          	addi	a0,a0,1844 # 1114 <_data_lma>
d:\Electromic\business_card\obj/../Startup/startup_CH583.S:150
	la a1, _data_vma
     9e8:	20000597          	auipc	a1,0x20000
     9ec:	fbc58593          	addi	a1,a1,-68 # 200009a4 <_highcode_vma_end>
d:\Electromic\business_card\obj/../Startup/startup_CH583.S:151
	la a2, _edata
     9f0:	20000617          	auipc	a2,0x20000
     9f4:	fb860613          	addi	a2,a2,-72 # 200009a8 <_edata>
d:\Electromic\business_card\obj/../Startup/startup_CH583.S:152
	bgeu a1, a2, 2f
     9f8:	00c5fa63          	bgeu	a1,a2,a0c <handle_reset+0x64>
d:\Electromic\business_card\obj/../Startup/startup_CH583.S:154
1:
	lw t0, (a0)
     9fc:	00052283          	lw	t0,0(a0)
d:\Electromic\business_card\obj/../Startup/startup_CH583.S:155
	sw t0, (a1)
     a00:	0055a023          	sw	t0,0(a1)
d:\Electromic\business_card\obj/../Startup/startup_CH583.S:156
	addi a0, a0, 4
     a04:	0511                	addi	a0,a0,4
d:\Electromic\business_card\obj/../Startup/startup_CH583.S:157
	addi a1, a1, 4
     a06:	0591                	addi	a1,a1,4
d:\Electromic\business_card\obj/../Startup/startup_CH583.S:158
	bltu a1, a2, 1b
     a08:	fec5eae3          	bltu	a1,a2,9fc <handle_reset+0x54>
d:\Electromic\business_card\obj/../Startup/startup_CH583.S:161
2:
	/* clear bss section */
	la a0, _sbss
     a0c:	20000517          	auipc	a0,0x20000
     a10:	f9c50513          	addi	a0,a0,-100 # 200009a8 <_edata>
d:\Electromic\business_card\obj/../Startup/startup_CH583.S:162
	la a1, _ebss
     a14:	9c018593          	addi	a1,gp,-1600 # 20000b68 <_ebss>
d:\Electromic\business_card\obj/../Startup/startup_CH583.S:163
	bgeu a0, a1, 2f
     a18:	00b57763          	bgeu	a0,a1,a26 <handle_reset+0x7e>
d:\Electromic\business_card\obj/../Startup/startup_CH583.S:165
1:
	sw zero, (a0)
     a1c:	00052023          	sw	zero,0(a0)
d:\Electromic\business_card\obj/../Startup/startup_CH583.S:166
	addi a0, a0, 4
     a20:	0511                	addi	a0,a0,4
d:\Electromic\business_card\obj/../Startup/startup_CH583.S:167
	bltu a0, a1, 1b
     a22:	feb56de3          	bltu	a0,a1,a1c <handle_reset+0x74>
d:\Electromic\business_card\obj/../Startup/startup_CH583.S:170
2:
	/* ┴„╦«Ž▀┐žųŲ╬╗ & Č»╠¼įż▓Ō┐žųŲ╬╗ */
	li t0, 0x1f
     a26:	42fd                	li	t0,31
d:\Electromic\business_card\obj/../Startup/startup_CH583.S:171
	csrw 0xbc0, t0
     a28:	bc029073          	csrw	0xbc0,t0
d:\Electromic\business_card\obj/../Startup/startup_CH583.S:173
	/* ┤“┐¬ŪČ╠ūųąČŽĪóė▓╝■č╣š╗╣”─▄ */
	li t0, 0x3
     a2c:	428d                	li	t0,3
d:\Electromic\business_card\obj/../Startup/startup_CH583.S:174
	csrw 0x804, t0
     a2e:	80429073          	csrw	0x804,t0
d:\Electromic\business_card\obj/../Startup/startup_CH583.S:176
	
    li t0, 0x88
     a32:	08800293          	li	t0,136
d:\Electromic\business_card\obj/../Startup/startup_CH583.S:177
    csrw mstatus, t0
     a36:	30029073          	csrw	mstatus,t0
d:\Electromic\business_card\obj/../Startup/startup_CH583.S:178
	la t0, _vector_base
     a3a:	1ffff297          	auipc	t0,0x1ffff
     a3e:	5c628293          	addi	t0,t0,1478 # 20000000 <_highcode_vma_start>
d:\Electromic\business_card\obj/../Startup/startup_CH583.S:181

	/* ┼õų├Ž“┴┐▒Ē─Ż╩Į╬¬Š°ČįĄžųĘ─Ż╩Į */
    ori t0, t0, 3
     a42:	0032e293          	ori	t0,t0,3
d:\Electromic\business_card\obj/../Startup/startup_CH583.S:182
	csrw mtvec, t0
     a46:	30529073          	csrw	mtvec,t0
d:\Electromic\business_card\obj/../Startup/startup_CH583.S:184

    lui a4,0x40001
     a4a:	40001737          	lui	a4,0x40001
d:\Electromic\business_card\obj/../Startup/startup_CH583.S:185
    li  a5,87
     a4e:	05700793          	li	a5,87
d:\Electromic\business_card\obj/../Startup/startup_CH583.S:186
    sb  a5,64(a4)
     a52:	04f70023          	sb	a5,64(a4) # 40001040 <_eusrstack+0x1fff9040>
d:\Electromic\business_card\obj/../Startup/startup_CH583.S:187
    li  a5,-88
     a56:	fa800793          	li	a5,-88
d:\Electromic\business_card\obj/../Startup/startup_CH583.S:188
    sb  a5,64(a4)
     a5a:	04f70023          	sb	a5,64(a4)
d:\Electromic\business_card\obj/../Startup/startup_CH583.S:189
    fence.i
     a5e:	0000100f          	fence.i
d:\Electromic\business_card\obj/../Startup/startup_CH583.S:190
    lw  a5,72(a4)
     a62:	473c                	lw	a5,72(a4)
d:\Electromic\business_card\obj/../Startup/startup_CH583.S:191
    lui a3,0xfa000
     a64:	fa0006b7          	lui	a3,0xfa000
d:\Electromic\business_card\obj/../Startup/startup_CH583.S:192
    addi  a3,a3,-8
     a68:	16e1                	addi	a3,a3,-8
d:\Electromic\business_card\obj/../Startup/startup_CH583.S:193
    and a5,a5,a3
     a6a:	8ff5                	and	a5,a5,a3
d:\Electromic\business_card\obj/../Startup/startup_CH583.S:194
    lui a3,0x6000
     a6c:	060006b7          	lui	a3,0x6000
d:\Electromic\business_card\obj/../Startup/startup_CH583.S:195
    addi a3,a3,5
     a70:	0695                	addi	a3,a3,5
d:\Electromic\business_card\obj/../Startup/startup_CH583.S:196
    or  a5,a5,a3
     a72:	8fd5                	or	a5,a5,a3
d:\Electromic\business_card\obj/../Startup/startup_CH583.S:197
    sw  a5,72(a4)
     a74:	c73c                	sw	a5,72(a4)
d:\Electromic\business_card\obj/../Startup/startup_CH583.S:199

	la t0, main
     a76:	00000297          	auipc	t0,0x0
     a7a:	3b028293          	addi	t0,t0,944 # e26 <main>
d:\Electromic\business_card\obj/../Startup/startup_CH583.S:200
	csrw mepc, t0
     a7e:	34129073          	csrw	mepc,t0
d:\Electromic\business_card\obj/../Startup/startup_CH583.S:203
	
	
	mret
     a82:	30200073          	mret

00000a86 <TKey_Convert.constprop.0>:
TKey_Convert():
d:\Electromic\business_card\obj/../src/Main.c:121
    R8_TKEY_CFG |= RB_TKEY_PWR_ON;
}

static uint16_t TKey_Convert(uint8_t charg, uint8_t disch)
{
    R8_TKEY_COUNT = (disch<<5) | (charg&0x1f);
     a86:	400017b7          	lui	a5,0x40001
     a8a:	02800713          	li	a4,40
     a8e:	04e78a23          	sb	a4,84(a5) # 40001054 <_eusrstack+0x1fff9054>
d:\Electromic\business_card\obj/../src/Main.c:122
    R8_TKEY_CONVERT = RB_TKEY_START;
     a92:	4705                	li	a4,1
     a94:	04e78b23          	sb	a4,86(a5)
d:\Electromic\business_card\obj/../src/Main.c:123
    while(R8_TKEY_CONVERT & RB_TKEY_START);
     a98:	40001737          	lui	a4,0x40001
     a9c:	05674783          	lbu	a5,86(a4) # 40001056 <_eusrstack+0x1fff9056>
     aa0:	8b85                	andi	a5,a5,1
     aa2:	ffed                	bnez	a5,a9c <TKey_Convert.constprop.0+0x16>
d:\Electromic\business_card\obj/../src/Main.c:124
    return (R16_ADC_DATA & RB_ADC_DATA);
     aa4:	05c75503          	lhu	a0,92(a4)
     aa8:	0552                	slli	a0,a0,0x14
d:\Electromic\business_card\obj/../src/Main.c:125
}
     aaa:	8151                	srli	a0,a0,0x14
     aac:	8082                	ret

00000aae <TKey_Init>:
TKey_Init():
d:\Electromic\business_card\obj/../src/Main.c:129

/* ======================== ÕłØÕ¦ŗÕī¢ ======================== */
void TKey_Init(void)
{
     aae:	1101                	addi	sp,sp,-32
d:\Electromic\business_card\obj/../src/Main.c:131
    uint8_t i;
    GPIOAGPPCfg(ENABLE, RB_PIN_ADC0_IE);
     ab0:	20000593          	li	a1,512
     ab4:	4505                	li	a0,1
d:\Electromic\business_card\obj/../src/Main.c:129
{
     ab6:	ce06                	sw	ra,28(sp)
     ab8:	cc22                	sw	s0,24(sp)
     aba:	c84a                	sw	s2,16(sp)
     abc:	c64e                	sw	s3,12(sp)
     abe:	c452                	sw	s4,8(sp)
     ac0:	c256                	sw	s5,4(sp)
     ac2:	ca26                	sw	s1,20(sp)
d:\Electromic\business_card\obj/../src/Main.c:131
    GPIOAGPPCfg(ENABLE, RB_PIN_ADC0_IE);
     ac4:	232d                	jal	fee <GPIOAGPPCfg>
d:\Electromic\business_card\obj/../src/Main.c:132
    GPIOAGPPCfg(ENABLE, RB_PIN_ADC1_IE);
     ac6:	40000593          	li	a1,1024
     aca:	4505                	li	a0,1
     acc:	230d                	jal	fee <GPIOAGPPCfg>
d:\Electromic\business_card\obj/../src/Main.c:133
    GPIOAGPPCfg(ENABLE, RB_PIN_ADC2_3_IE);
     ace:	6591                	lui	a1,0x4
     ad0:	4505                	li	a0,1
     ad2:	2b31                	jal	fee <GPIOAGPPCfg>
d:\Electromic\business_card\obj/../src/Main.c:134
    GPIOAGPPCfg(ENABLE, RB_PIN_ADC4_5_IE);
     ad4:	65a1                	lui	a1,0x8
     ad6:	4505                	li	a0,1
     ad8:	2b19                	jal	fee <GPIOAGPPCfg>
d:\Electromic\business_card\obj/../src/Main.c:135
    GPIOAGPPCfg(ENABLE, RB_PIN_ADC6_7_IE);
     ada:	4589                	li	a1,2
     adc:	4505                	li	a0,1
     ade:	2b01                	jal	fee <GPIOAGPPCfg>
TKey_ChSampInit():
d:\Electromic\business_card\obj/../src/Main.c:115
    R8_ADC_CFG = RB_ADC_POWER_ON | RB_ADC_BUF_EN | (1<<4);
     ae0:	400017b7          	lui	a5,0x40001
     ae4:	474d                	li	a4,19
     ae6:	04e78ca3          	sb	a4,89(a5) # 40001059 <_eusrstack+0x1fff9059>
d:\Electromic\business_card\obj/../src/Main.c:116
    R8_TKEY_CFG |= RB_TKEY_PWR_ON;
     aea:	0577c703          	lbu	a4,87(a5)
     aee:	9b018413          	addi	s0,gp,-1616 # 20000b58 <tkey_base>
     af2:	4901                	li	s2,0
     af4:	00176713          	ori	a4,a4,1
     af8:	04e78ba3          	sb	a4,87(a5)
TKey_Init():
d:\Electromic\business_card\obj/../src/Main.c:138
    TKey_ChSampInit();
    for(i=0;i<COL_COUNT;i++){
        R8_ADC_CHANNEL = TKC[i];
     afc:	00000a97          	auipc	s5,0x0
     b00:	610a8a93          	addi	s5,s5,1552 # 110c <TKC>
     b04:	40001a37          	lui	s4,0x40001
d:\Electromic\business_card\obj/../src/Main.c:137
    for(i=0;i<COL_COUNT;i++){
     b08:	499d                	li	s3,7
d:\Electromic\business_card\obj/../src/Main.c:138 (discriminator 3)
        R8_ADC_CHANNEL = TKC[i];
     b0a:	012a87b3          	add	a5,s5,s2
     b0e:	0007c783          	lbu	a5,0(a5)
d:\Electromic\business_card\obj/../src/Main.c:139 (discriminator 3)
        DelayUs(20);
     b12:	4551                	li	a0,20
     b14:	0905                	addi	s2,s2,1
d:\Electromic\business_card\obj/../src/Main.c:138 (discriminator 3)
        R8_ADC_CHANNEL = TKC[i];
     b16:	04fa0c23          	sb	a5,88(s4) # 40001058 <_eusrstack+0x1fff9058>
d:\Electromic\business_card\obj/../src/Main.c:139 (discriminator 3)
        DelayUs(20);
     b1a:	20000097          	auipc	ra,0x20000
     b1e:	a2e080e7          	jalr	-1490(ra) # 20000548 <mDelayuS>
d:\Electromic\business_card\obj/../src/Main.c:140 (discriminator 3)
        tkey_base[i] = TKey_Convert(8,1);
     b22:	3795                	jal	a86 <TKey_Convert.constprop.0>
     b24:	00a41023          	sh	a0,0(s0)
d:\Electromic\business_card\obj/../src/Main.c:141 (discriminator 3)
        DelayUs(5);
     b28:	4515                	li	a0,5
     b2a:	20000097          	auipc	ra,0x20000
     b2e:	a1e080e7          	jalr	-1506(ra) # 20000548 <mDelayuS>
d:\Electromic\business_card\obj/../src/Main.c:142 (discriminator 3)
        tkey_base[i] = (tkey_base[i] + TKey_Convert(8,1)) >> 1;
     b32:	00045483          	lhu	s1,0(s0)
     b36:	3f81                	jal	a86 <TKey_Convert.constprop.0>
     b38:	0409                	addi	s0,s0,2
     b3a:	9526                	add	a0,a0,s1
     b3c:	8505                	srai	a0,a0,0x1
     b3e:	fea41f23          	sh	a0,-2(s0)
d:\Electromic\business_card\obj/../src/Main.c:137 (discriminator 3)
    for(i=0;i<COL_COUNT;i++){
     b42:	fd3914e3          	bne	s2,s3,b0a <TKey_Init+0x5c>
d:\Electromic\business_card\obj/../src/Main.c:144
    }
}
     b46:	40f2                	lw	ra,28(sp)
     b48:	4462                	lw	s0,24(sp)
     b4a:	44d2                	lw	s1,20(sp)
     b4c:	4942                	lw	s2,16(sp)
     b4e:	49b2                	lw	s3,12(sp)
     b50:	4a22                	lw	s4,8(sp)
     b52:	4a92                	lw	s5,4(sp)
     b54:	6105                	addi	sp,sp,32
     b56:	8082                	ret

00000b58 <GPIOInit>:
GPIOInit():
d:\Electromic\business_card\obj/../src/Main.c:147

void GPIOInit(void)
{
     b58:	1141                	addi	sp,sp,-16
d:\Electromic\business_card\obj/../src/Main.c:148
    GPIOA_ModeCfg(R1_PIN|R2_PIN|R3_PIN|R4_PIN|R5_PIN|R6_PIN|R7_PIN, GPIO_ModeOut_PP_5mA);
     b5a:	458d                	li	a1,3
     b5c:	3c700513          	li	a0,967
d:\Electromic\business_card\obj/../src/Main.c:147
{
     b60:	c606                	sw	ra,12(sp)
d:\Electromic\business_card\obj/../src/Main.c:148
    GPIOA_ModeCfg(R1_PIN|R2_PIN|R3_PIN|R4_PIN|R5_PIN|R6_PIN|R7_PIN, GPIO_ModeOut_PP_5mA);
     b62:	26dd                	jal	f48 <GPIOA_ModeCfg>
d:\Electromic\business_card\obj/../src/Main.c:149
    GPIOA_ModeCfg(COL_ALL, GPIO_ModeIN_Floating);
     b64:	653d                	lui	a0,0xf
     b66:	4581                	li	a1,0
     b68:	03850513          	addi	a0,a0,56 # f038 <_data_lma+0xdf24>
     b6c:	2ef1                	jal	f48 <GPIOA_ModeCfg>
d:\Electromic\business_card\obj/../src/Main.c:150
    GPIOA_SetBits(R1_PIN|R2_PIN|R3_PIN|R4_PIN|R5_PIN|R6_PIN|R7_PIN);
     b6e:	40001737          	lui	a4,0x40001
     b72:	0a872783          	lw	a5,168(a4) # 400010a8 <_eusrstack+0x1fff90a8>
d:\Electromic\business_card\obj/../src/Main.c:151
}
     b76:	40b2                	lw	ra,12(sp)
d:\Electromic\business_card\obj/../src/Main.c:150
    GPIOA_SetBits(R1_PIN|R2_PIN|R3_PIN|R4_PIN|R5_PIN|R6_PIN|R7_PIN);
     b78:	3c77e793          	ori	a5,a5,967
     b7c:	0af72423          	sw	a5,168(a4)
d:\Electromic\business_card\obj/../src/Main.c:151
}
     b80:	0141                	addi	sp,sp,16
     b82:	8082                	ret

00000b84 <MatrixScan>:
MatrixScan():
d:\Electromic\business_card\obj/../src/Main.c:155

/* ======================== ń¤®ķśĄµē½µÅÅ ======================== */
void MatrixScan(void)
{
     b84:	7139                	addi	sp,sp,-64
     b86:	dc22                	sw	s0,56(sp)
     b88:	da26                	sw	s1,52(sp)
     b8a:	d64e                	sw	s3,44(sp)
     b8c:	d452                	sw	s4,40(sp)
     b8e:	d256                	sw	s5,36(sp)
     b90:	d05a                	sw	s6,32(sp)
     b92:	ce5e                	sw	s7,28(sp)
     b94:	cc62                	sw	s8,24(sp)
     b96:	de06                	sw	ra,60(sp)
     b98:	d84a                	sw	s2,48(sp)
     b9a:	ca66                	sw	s9,20(sp)
     b9c:	c86a                	sw	s10,16(sp)
     b9e:	c66e                	sw	s11,12(sp)
     ba0:	00000a17          	auipc	s4,0x0
     ba4:	538a0a13          	addi	s4,s4,1336 # 10d8 <row_pin>
     ba8:	4981                	li	s3,0
d:\Electromic\business_card\obj/../src/Main.c:158
    uint8_t r,c,idx;
    uint16_t val,diff;
    for(r=0;r<ROW_COUNT;r++){
     baa:	4481                	li	s1,0
d:\Electromic\business_card\obj/../src/Main.c:159
        if(r<7) GPIOA_ResetBits(row_pin[r]);
     bac:	4a9d                	li	s5,7
d:\Electromic\business_card\obj/../src/Main.c:160
        else    GPIOB_ResetBits(R8_PIN);
     bae:	40001437          	lui	s0,0x40001
d:\Electromic\business_card\obj/../src/Main.c:163
        DelayUs(3);
        for(c=0;c<COL_COUNT;c++){
            R8_ADC_CHANNEL = TKC[c];
     bb2:	00000c17          	auipc	s8,0x0
     bb6:	55ac0c13          	addi	s8,s8,1370 # 110c <TKC>
d:\Electromic\business_card\obj/../src/Main.c:170
            val = TKey_Convert(8,1);
            diff = (val>tkey_base[c])?(val-tkey_base[c]):0;
            idx = r*COL_COUNT+c;
            if(idx>=KEY_COUNT) continue;
            if(r<4){ if(diff>80) key_state[idx]=1; }
            else if(c>=2){ if(diff>80) key_state[idx]=1; }
     bba:	4b05                	li	s6,1
     bbc:	98018b93          	addi	s7,gp,-1664 # 20000b28 <key_state>
d:\Electromic\business_card\obj/../src/Main.c:159
        if(r<7) GPIOA_ResetBits(row_pin[r]);
     bc0:	0d548163          	beq	s1,s5,c82 <MatrixScan+0xfe>
d:\Electromic\business_card\obj/../src/Main.c:159 (discriminator 1)
     bc4:	0ac42783          	lw	a5,172(s0) # 400010ac <_eusrstack+0x1fff90ac>
     bc8:	000a2703          	lw	a4,0(s4)
     bcc:	8fd9                	or	a5,a5,a4
     bce:	0af42623          	sw	a5,172(s0)
d:\Electromic\business_card\obj/../src/Main.c:161
        DelayUs(3);
     bd2:	450d                	li	a0,3
     bd4:	20000097          	auipc	ra,0x20000
     bd8:	974080e7          	jalr	-1676(ra) # 20000548 <mDelayuS>
d:\Electromic\business_card\obj/../src/Main.c:162
        for(c=0;c<COL_COUNT;c++){
     bdc:	0ff9fd93          	andi	s11,s3,255
     be0:	9b018c93          	addi	s9,gp,-1616 # 20000b58 <tkey_base>
d:\Electromic\business_card\obj/../src/Main.c:161
        DelayUs(3);
     be4:	4901                	li	s2,0
d:\Electromic\business_card\obj/../src/Main.c:170
            else if(c>=2){ if(diff>80) key_state[idx]=1; }
     be6:	05000d13          	li	s10,80
d:\Electromic\business_card\obj/../src/Main.c:163
            R8_ADC_CHANNEL = TKC[c];
     bea:	012c07b3          	add	a5,s8,s2
     bee:	0007c783          	lbu	a5,0(a5)
d:\Electromic\business_card\obj/../src/Main.c:164
            DelayUs(2);
     bf2:	4509                	li	a0,2
d:\Electromic\business_card\obj/../src/Main.c:163
            R8_ADC_CHANNEL = TKC[c];
     bf4:	04f40c23          	sb	a5,88(s0)
d:\Electromic\business_card\obj/../src/Main.c:164
            DelayUs(2);
     bf8:	20000097          	auipc	ra,0x20000
     bfc:	950080e7          	jalr	-1712(ra) # 20000548 <mDelayuS>
d:\Electromic\business_card\obj/../src/Main.c:165
            val = TKey_Convert(8,1);
     c00:	3559                	jal	a86 <TKey_Convert.constprop.0>
d:\Electromic\business_card\obj/../src/Main.c:166
            diff = (val>tkey_base[c])?(val-tkey_base[c]):0;
     c02:	000cd703          	lhu	a4,0(s9)
     c06:	4781                	li	a5,0
     c08:	02f00693          	li	a3,47
     c0c:	460d                	li	a2,3
     c0e:	00a77663          	bgeu	a4,a0,c1a <MatrixScan+0x96>
d:\Electromic\business_card\obj/../src/Main.c:166 (discriminator 1)
     c12:	8d19                	sub	a0,a0,a4
     c14:	01051793          	slli	a5,a0,0x10
     c18:	83c1                	srli	a5,a5,0x10
d:\Electromic\business_card\obj/../src/Main.c:168 (discriminator 4)
            if(idx>=KEY_COUNT) continue;
     c1a:	012d8733          	add	a4,s11,s2
     c1e:	0ff77713          	andi	a4,a4,255
     c22:	00e6ec63          	bltu	a3,a4,c3a <MatrixScan+0xb6>
d:\Electromic\business_card\obj/../src/Main.c:169
            if(r<4){ if(diff>80) key_state[idx]=1; }
     c26:	06966563          	bltu	a2,s1,c90 <MatrixScan+0x10c>
d:\Electromic\business_card\obj/../src/Main.c:169 (discriminator 1)
     c2a:	00fd7863          	bgeu	s10,a5,c3a <MatrixScan+0xb6>
d:\Electromic\business_card\obj/../src/Main.c:169 (discriminator 2)
     c2e:	013907b3          	add	a5,s2,s3
     c32:	97de                	add	a5,a5,s7
     c34:	4705                	li	a4,1
     c36:	00e78023          	sb	a4,0(a5)
     c3a:	0905                	addi	s2,s2,1
     c3c:	0c89                	addi	s9,s9,2
d:\Electromic\business_card\obj/../src/Main.c:162 (discriminator 2)
        for(c=0;c<COL_COUNT;c++){
     c3e:	fb5916e3          	bne	s2,s5,bea <MatrixScan+0x66>
d:\Electromic\business_card\obj/../src/Main.c:172
        }
        if(r<7) GPIOA_SetBits(row_pin[r]);
     c42:	07548163          	beq	s1,s5,ca4 <MatrixScan+0x120>
d:\Electromic\business_card\obj/../src/Main.c:172 (discriminator 1)
     c46:	0a842783          	lw	a5,168(s0)
     c4a:	000a2703          	lw	a4,0(s4)
     c4e:	8fd9                	or	a5,a5,a4
     c50:	0af42423          	sw	a5,168(s0)
d:\Electromic\business_card\obj/../src/Main.c:158 (discriminator 2)
    for(r=0;r<ROW_COUNT;r++){
     c54:	0485                	addi	s1,s1,1
     c56:	0ff4f493          	andi	s1,s1,255
     c5a:	47a1                	li	a5,8
     c5c:	0a11                	addi	s4,s4,4
     c5e:	099d                	addi	s3,s3,7
     c60:	f6f490e3          	bne	s1,a5,bc0 <MatrixScan+0x3c>
d:\Electromic\business_card\obj/../src/Main.c:175
        else    GPIOB_SetBits(R8_PIN);
    }
}
     c64:	50f2                	lw	ra,60(sp)
     c66:	5462                	lw	s0,56(sp)
     c68:	54d2                	lw	s1,52(sp)
     c6a:	5942                	lw	s2,48(sp)
     c6c:	59b2                	lw	s3,44(sp)
     c6e:	5a22                	lw	s4,40(sp)
     c70:	5a92                	lw	s5,36(sp)
     c72:	5b02                	lw	s6,32(sp)
     c74:	4bf2                	lw	s7,28(sp)
     c76:	4c62                	lw	s8,24(sp)
     c78:	4cd2                	lw	s9,20(sp)
     c7a:	4d42                	lw	s10,16(sp)
     c7c:	4db2                	lw	s11,12(sp)
     c7e:	6121                	addi	sp,sp,64
     c80:	8082                	ret
d:\Electromic\business_card\obj/../src/Main.c:160
        else    GPIOB_ResetBits(R8_PIN);
     c82:	0cc42783          	lw	a5,204(s0)
     c86:	2007e793          	ori	a5,a5,512
     c8a:	0cf42623          	sw	a5,204(s0)
     c8e:	b791                	j	bd2 <MatrixScan+0x4e>
d:\Electromic\business_card\obj/../src/Main.c:170
            else if(c>=2){ if(diff>80) key_state[idx]=1; }
     c90:	fb2b75e3          	bgeu	s6,s2,c3a <MatrixScan+0xb6>
d:\Electromic\business_card\obj/../src/Main.c:170 (discriminator 1)
     c94:	fafd73e3          	bgeu	s10,a5,c3a <MatrixScan+0xb6>
d:\Electromic\business_card\obj/../src/Main.c:170 (discriminator 2)
     c98:	013907b3          	add	a5,s2,s3
     c9c:	97de                	add	a5,a5,s7
     c9e:	01678023          	sb	s6,0(a5)
     ca2:	bf61                	j	c3a <MatrixScan+0xb6>
d:\Electromic\business_card\obj/../src/Main.c:173
        else    GPIOB_SetBits(R8_PIN);
     ca4:	0c842783          	lw	a5,200(s0)
     ca8:	2007e793          	ori	a5,a5,512
     cac:	0cf42423          	sw	a5,200(s0)
     cb0:	b755                	j	c54 <MatrixScan+0xd0>

00000cb2 <SendHIDReport>:
SendHIDReport():
d:\Electromic\business_card\obj/../src/Main.c:179

/* ======================== HID µŖźÕæŖ ======================== */
void SendHIDReport(void)
{
     cb2:	1101                	addi	sp,sp,-32
d:\Electromic\business_card\obj/../src/Main.c:181
    uint8_t i,idx,r,c,kc,mod=0,ri=2;
    for(i=0;i<8;i++) HIDKeyBuff[i]=0;
     cb4:	20000797          	auipc	a5,0x20000
     cb8:	ce07aa23          	sw	zero,-780(a5) # 200009a8 <_edata>
     cbc:	20000797          	auipc	a5,0x20000
     cc0:	ce07a823          	sw	zero,-784(a5) # 200009ac <_edata+0x4>
d:\Electromic\business_card\obj/../src/Main.c:179
{
     cc4:	ce22                	sw	s0,28(sp)
     cc6:	cc26                	sw	s1,24(sp)
     cc8:	ca4a                	sw	s2,20(sp)
     cca:	c84e                	sw	s3,16(sp)
     ccc:	c652                	sw	s4,12(sp)
     cce:	c456                	sw	s5,8(sp)
     cd0:	c25a                	sw	s6,4(sp)
d:\Electromic\business_card\obj/../src/Main.c:182
    if(key_state[FN_R1*COL_COUNT+FN_C1] || key_state[FN_R2*COL_COUNT+FN_C2])
     cd2:	9981c783          	lbu	a5,-1640(gp) # 20000b40 <key_state+0x18>
     cd6:	98018313          	addi	t1,gp,-1664 # 20000b28 <key_state>
     cda:	e791                	bnez	a5,ce6 <SendHIDReport+0x34>
d:\Electromic\business_card\obj/../src/Main.c:182 (discriminator 1)
     cdc:	03234783          	lbu	a5,50(t1)
     ce0:	0ff7f793          	andi	a5,a5,255
     ce4:	c781                	beqz	a5,cec <SendHIDReport+0x3a>
d:\Electromic\business_card\obj/../src/Main.c:183
        fn_pressed=1;
     ce6:	4785                	li	a5,1
     ce8:	80f18423          	sb	a5,-2040(gp) # 200009b0 <fn_pressed>
     cec:	00000517          	auipc	a0,0x0
     cf0:	35450513          	addi	a0,a0,852 # 1040 <KeyMap>
d:\Electromic\business_card\obj/../src/Main.c:179 (discriminator 3)
{
     cf4:	4801                	li	a6,0
     cf6:	4609                	li	a2,2
     cf8:	4701                	li	a4,0
d:\Electromic\business_card\obj/../src/Main.c:187 (discriminator 3)
    for(idx=0;idx<KEY_COUNT && ri<8;idx++){
        if(!key_state[idx]) continue;
        r=KeyMap[idx][0]; c=KeyMap[idx][1];
        if((r==FN_R1&&c==FN_C1)||(r==FN_R2&&c==FN_C2)) continue;
     cfa:	4e0d                	li	t3,3
d:\Electromic\business_card\obj/../src/Main.c:188 (discriminator 3)
        kc = fn_pressed?FnTable[r][c]:KeyTable[r][c];
     cfc:	80818e93          	addi	t4,gp,-2040 # 200009b0 <fn_pressed>
d:\Electromic\business_card\obj/../src/Main.c:190 (discriminator 3)
        if(fn_pressed && kc==0) kc=KeyTable[r][c];
        if(kc==0xE0) mod|=0x01;
     d00:	0e000393          	li	t2,224
d:\Electromic\business_card\obj/../src/Main.c:191 (discriminator 3)
        else if(kc==0xE1) mod|=0x02;
     d04:	0e100413          	li	s0,225
d:\Electromic\business_card\obj/../src/Main.c:192 (discriminator 3)
        else if(kc==0xE2) mod|=0x04;
     d08:	0e200493          	li	s1,226
d:\Electromic\business_card\obj/../src/Main.c:193 (discriminator 3)
        else if(kc==0xE3) mod|=0x08;
     d0c:	0e300913          	li	s2,227
d:\Electromic\business_card\obj/../src/Main.c:194 (discriminator 3)
        else HIDKeyBuff[ri++]=kc;
     d10:	20000997          	auipc	s3,0x20000
     d14:	c9898993          	addi	s3,s3,-872 # 200009a8 <_edata>
d:\Electromic\business_card\obj/../src/Main.c:189 (discriminator 3)
        if(fn_pressed && kc==0) kc=KeyTable[r][c];
     d18:	00000f17          	auipc	t5,0x0
     d1c:	388f0f13          	addi	t5,t5,904 # 10a0 <KeyTable>
     d20:	489d                	li	a7,7
d:\Electromic\business_card\obj/../src/Main.c:188 (discriminator 3)
        kc = fn_pressed?FnTable[r][c]:KeyTable[r][c];
     d22:	00000a17          	auipc	s4,0x0
     d26:	2e6a0a13          	addi	s4,s4,742 # 1008 <FnTable>
d:\Electromic\business_card\obj/../src/Main.c:187 (discriminator 3)
        if((r==FN_R1&&c==FN_C1)||(r==FN_R2&&c==FN_C2)) continue;
     d2a:	4a85                	li	s5,1
d:\Electromic\business_card\obj/../src/Main.c:184 (discriminator 3)
    for(idx=0;idx<KEY_COUNT && ri<8;idx++){
     d2c:	02f00293          	li	t0,47
     d30:	4fa1                	li	t6,8
d:\Electromic\business_card\obj/../src/Main.c:185
        if(!key_state[idx]) continue;
     d32:	010307b3          	add	a5,t1,a6
     d36:	0007c783          	lbu	a5,0(a5)
     d3a:	0ff7f793          	andi	a5,a5,255
     d3e:	cb89                	beqz	a5,d50 <SendHIDReport+0x9e>
d:\Electromic\business_card\obj/../src/Main.c:186
        r=KeyMap[idx][0]; c=KeyMap[idx][1];
     d40:	00054783          	lbu	a5,0(a0)
     d44:	00154583          	lbu	a1,1(a0)
d:\Electromic\business_card\obj/../src/Main.c:187
        if((r==FN_R1&&c==FN_C1)||(r==FN_R2&&c==FN_C2)) continue;
     d48:	07c79363          	bne	a5,t3,dae <SendHIDReport+0xfc>
d:\Electromic\business_card\obj/../src/Main.c:187 (discriminator 1)
     d4c:	07c59563          	bne	a1,t3,db6 <SendHIDReport+0x104>
d:\Electromic\business_card\obj/../src/Main.c:184 (discriminator 2)
    for(idx=0;idx<KEY_COUNT && ri<8;idx++){
     d50:	00580663          	beq	a6,t0,d5c <SendHIDReport+0xaa>
     d54:	0805                	addi	a6,a6,1
     d56:	0509                	addi	a0,a0,2
d:\Electromic\business_card\obj/../src/Main.c:184 (discriminator 3)
     d58:	fdf61de3          	bne	a2,t6,d32 <SendHIDReport+0x80>
d:\Electromic\business_card\obj/../src/Main.c:196
    }
    HIDKeyBuff[0]=mod;
     d5c:	20000797          	auipc	a5,0x20000
     d60:	c4c78793          	addi	a5,a5,-948 # 200009a8 <_edata>
     d64:	20000697          	auipc	a3,0x20000
     d68:	c4e68223          	sb	a4,-956(a3) # 200009a8 <_edata>
d:\Electromic\business_card\obj/../src/Main.c:199

    /* ńø┤µÄźÕåÖÕģź EP1_Databuf (IN ń╝ōÕå▓Õī║Õ£©ÕÉÄ 64 ÕŁŚĶŖé) */
    EP1_Databuf[64] = HIDKeyBuff[0];
     d6c:	90e18823          	sb	a4,-1776(gp) # 20000ab8 <EP1_Databuf+0x40>
d:\Electromic\business_card\obj/../src/Main.c:200
    EP1_Databuf[65] = HIDKeyBuff[1];
     d70:	0017c703          	lbu	a4,1(a5)
     d74:	90e188a3          	sb	a4,-1775(gp) # 20000ab9 <EP1_Databuf+0x41>
d:\Electromic\business_card\obj/../src/Main.c:201
    EP1_Databuf[66] = HIDKeyBuff[2];
     d78:	0027d703          	lhu	a4,2(a5)
d:\Electromic\business_card\obj/../src/Main.c:203
    EP1_Databuf[67] = HIDKeyBuff[3];
    EP1_Databuf[68] = HIDKeyBuff[4];
     d7c:	43dc                	lw	a5,4(a5)
d:\Electromic\business_card\obj/../src/Main.c:201
    EP1_Databuf[66] = HIDKeyBuff[2];
     d7e:	90e19923          	sh	a4,-1774(gp) # 20000aba <EP1_Databuf+0x42>
d:\Electromic\business_card\obj/../src/Main.c:203
    EP1_Databuf[68] = HIDKeyBuff[4];
     d82:	90f1aa23          	sw	a5,-1772(gp) # 20000abc <EP1_Databuf+0x44>
d:\Electromic\business_card\obj/../src/Main.c:209
    EP1_Databuf[69] = HIDKeyBuff[5];
    EP1_Databuf[70] = HIDKeyBuff[6];
    EP1_Databuf[71] = HIDKeyBuff[7];

    /* EP1 IN ÕÅæķĆü */
    R8_UEP1_T_LEN = 8;
     d86:	4721                	li	a4,8
     d88:	400087b7          	lui	a5,0x40008
     d8c:	02e78223          	sb	a4,36(a5) # 40008024 <_eusrstack+0x20000024>
d:\Electromic\business_card\obj/../src/Main.c:210
    R8_UEP1_CTRL = (R8_UEP1_CTRL & ~MASK_UEP_T_RES) | UEP_T_RES_ACK;
     d90:	0267c703          	lbu	a4,38(a5)
     d94:	0fc77713          	andi	a4,a4,252
     d98:	02e78323          	sb	a4,38(a5)
d:\Electromic\business_card\obj/../src/Main.c:211
}
     d9c:	4472                	lw	s0,28(sp)
     d9e:	44e2                	lw	s1,24(sp)
     da0:	4952                	lw	s2,20(sp)
     da2:	49c2                	lw	s3,16(sp)
     da4:	4a32                	lw	s4,12(sp)
     da6:	4aa2                	lw	s5,8(sp)
     da8:	4b12                	lw	s6,4(sp)
     daa:	6105                	addi	sp,sp,32
     dac:	8082                	ret
d:\Electromic\business_card\obj/../src/Main.c:187 (discriminator 4)
        if((r==FN_R1&&c==FN_C1)||(r==FN_R2&&c==FN_C2)) continue;
     dae:	01179463          	bne	a5,a7,db6 <SendHIDReport+0x104>
d:\Electromic\business_card\obj/../src/Main.c:187 (discriminator 5)
     db2:	f9558fe3          	beq	a1,s5,d50 <SendHIDReport+0x9e>
d:\Electromic\business_card\obj/../src/Main.c:188
        kc = fn_pressed?FnTable[r][c]:KeyTable[r][c];
     db6:	000ec683          	lbu	a3,0(t4)
     dba:	0ff6f693          	andi	a3,a3,255
     dbe:	ca8d                	beqz	a3,df0 <SendHIDReport+0x13e>
d:\Electromic\business_card\obj/../src/Main.c:188 (discriminator 1)
     dc0:	031786b3          	mul	a3,a5,a7
     dc4:	96d2                	add	a3,a3,s4
d:\Electromic\business_card\obj/../src/Main.c:189 (discriminator 2)
        if(fn_pressed && kc==0) kc=KeyTable[r][c];
     dc6:	000ecb03          	lbu	s6,0(t4)
d:\Electromic\business_card\obj/../src/Main.c:188 (discriminator 2)
        kc = fn_pressed?FnTable[r][c]:KeyTable[r][c];
     dca:	96ae                	add	a3,a3,a1
     dcc:	0006c683          	lbu	a3,0(a3)
d:\Electromic\business_card\obj/../src/Main.c:189 (discriminator 2)
        if(fn_pressed && kc==0) kc=KeyTable[r][c];
     dd0:	0ffb7b13          	andi	s6,s6,255
     dd4:	000b0963          	beqz	s6,de6 <SendHIDReport+0x134>
d:\Electromic\business_card\obj/../src/Main.c:189 (discriminator 1)
     dd8:	e699                	bnez	a3,de6 <SendHIDReport+0x134>
d:\Electromic\business_card\obj/../src/Main.c:189 (discriminator 2)
     dda:	031787b3          	mul	a5,a5,a7
     dde:	97fa                	add	a5,a5,t5
     de0:	97ae                	add	a5,a5,a1
     de2:	0007c683          	lbu	a3,0(a5)
d:\Electromic\business_card\obj/../src/Main.c:190
        if(kc==0xE0) mod|=0x01;
     de6:	00769963          	bne	a3,t2,df8 <SendHIDReport+0x146>
d:\Electromic\business_card\obj/../src/Main.c:190 (discriminator 1)
     dea:	00176713          	ori	a4,a4,1
     dee:	b78d                	j	d50 <SendHIDReport+0x9e>
d:\Electromic\business_card\obj/../src/Main.c:188 (discriminator 2)
        kc = fn_pressed?FnTable[r][c]:KeyTable[r][c];
     df0:	031786b3          	mul	a3,a5,a7
     df4:	96fa                	add	a3,a3,t5
     df6:	bfc1                	j	dc6 <SendHIDReport+0x114>
d:\Electromic\business_card\obj/../src/Main.c:191
        else if(kc==0xE1) mod|=0x02;
     df8:	00869563          	bne	a3,s0,e02 <SendHIDReport+0x150>
d:\Electromic\business_card\obj/../src/Main.c:191 (discriminator 1)
     dfc:	00276713          	ori	a4,a4,2
     e00:	bf81                	j	d50 <SendHIDReport+0x9e>
d:\Electromic\business_card\obj/../src/Main.c:192
        else if(kc==0xE2) mod|=0x04;
     e02:	00969563          	bne	a3,s1,e0c <SendHIDReport+0x15a>
d:\Electromic\business_card\obj/../src/Main.c:192 (discriminator 1)
     e06:	00476713          	ori	a4,a4,4
     e0a:	b799                	j	d50 <SendHIDReport+0x9e>
d:\Electromic\business_card\obj/../src/Main.c:193
        else if(kc==0xE3) mod|=0x08;
     e0c:	01269563          	bne	a3,s2,e16 <SendHIDReport+0x164>
d:\Electromic\business_card\obj/../src/Main.c:193 (discriminator 1)
     e10:	00876713          	ori	a4,a4,8
     e14:	bf35                	j	d50 <SendHIDReport+0x9e>
d:\Electromic\business_card\obj/../src/Main.c:194
        else HIDKeyBuff[ri++]=kc;
     e16:	00160793          	addi	a5,a2,1
     e1a:	964e                	add	a2,a2,s3
     e1c:	00d60023          	sb	a3,0(a2)
     e20:	0ff7f613          	andi	a2,a5,255
     e24:	b735                	j	d50 <SendHIDReport+0x9e>

00000e26 <main>:
main():
d:\Electromic\business_card\obj/../src/Main.c:215

/* ======================== õĖ╗ÕćĮµĢ░ ======================== */
int main(void)
{
     e26:	1101                	addi	sp,sp,-32
d:\Electromic\business_card\obj/../src/Main.c:217
    uint8_t i;
    SetSysClock(CLK_SOURCE_PLL_60MHz);
     e28:	04800513          	li	a0,72
d:\Electromic\business_card\obj/../src/Main.c:215
{
     e2c:	ce06                	sw	ra,28(sp)
     e2e:	cc22                	sw	s0,24(sp)
     e30:	ca26                	sw	s1,20(sp)
     e32:	c84a                	sw	s2,16(sp)
     e34:	c64e                	sw	s3,12(sp)
     e36:	c452                	sw	s4,8(sp)
d:\Electromic\business_card\obj/../src/Main.c:217
    SetSysClock(CLK_SOURCE_PLL_60MHz);
     e38:	1ffff097          	auipc	ra,0x1ffff
     e3c:	25a080e7          	jalr	602(ra) # 20000092 <SetSysClock>
d:\Electromic\business_card\obj/../src/Main.c:218
    GPIOInit();
     e40:	3b21                	jal	b58 <GPIOInit>
d:\Electromic\business_card\obj/../src/Main.c:219
    TKey_Init();
     e42:	31b5                	jal	aae <TKey_Init>
d:\Electromic\business_card\obj/../src/Main.c:222

    /* USB ÕłØÕ¦ŗÕī¢ - ńø┤µÄźµōŹõĮ£Õ»äÕŁśÕÖ©, õĖŹõŠØĶĄ¢ usbdev.c */
    R8_USB_CTRL = 0x00;
     e44:	400087b7          	lui	a5,0x40008
     e48:	00078023          	sb	zero,0(a5) # 40008000 <_eusrstack+0x20000000>
d:\Electromic\business_card\obj/../src/Main.c:223
    R8_UEP4_1_MOD = RB_UEP4_RX_EN | RB_UEP4_TX_EN | RB_UEP1_RX_EN | RB_UEP1_TX_EN;
     e4c:	fcc00713          	li	a4,-52
     e50:	00e78623          	sb	a4,12(a5)
d:\Electromic\business_card\obj/../src/Main.c:224
    R8_UEP2_3_MOD = RB_UEP2_RX_EN | RB_UEP2_TX_EN | RB_UEP3_RX_EN | RB_UEP3_TX_EN;
     e54:	00e786a3          	sb	a4,13(a5)
d:\Electromic\business_card\obj/../src/Main.c:225
    R16_UEP0_DMA = (uint16_t)(uint32_t)EP0_Databuf;
     e58:	81018713          	addi	a4,gp,-2032 # 200009b8 <EP0_Databuf>
     e5c:	00e79823          	sh	a4,16(a5)
d:\Electromic\business_card\obj/../src/Main.c:226
    R16_UEP1_DMA = (uint16_t)(uint32_t)EP1_Databuf;
     e60:	8d018713          	addi	a4,gp,-1840 # 20000a78 <EP1_Databuf>
     e64:	00e79a23          	sh	a4,20(a5)
d:\Electromic\business_card\obj/../src/Main.c:227
    R8_UEP0_CTRL = UEP_R_RES_ACK | UEP_T_RES_NAK;
     e68:	4709                	li	a4,2
     e6a:	02e78123          	sb	a4,34(a5)
d:\Electromic\business_card\obj/../src/Main.c:228
    R8_UEP1_CTRL = UEP_R_RES_ACK | UEP_T_RES_NAK | RB_UEP_AUTO_TOG;
     e6e:	4749                	li	a4,18
     e70:	02e78323          	sb	a4,38(a5)
d:\Electromic\business_card\obj/../src/Main.c:229
    R8_USB_DEV_AD = 0x00;
     e74:	000781a3          	sb	zero,3(a5)
d:\Electromic\business_card\obj/../src/Main.c:230
    R8_USB_CTRL = RB_UC_DEV_PU_EN | RB_UC_INT_BUSY | RB_UC_DMA_EN;
     e78:	02900713          	li	a4,41
     e7c:	00e78023          	sb	a4,0(a5)
d:\Electromic\business_card\obj/../src/Main.c:231
    R16_PIN_ANALOG_IE |= RB_PIN_USB_IE | RB_PIN_USB_DP_PU;
     e80:	400016b7          	lui	a3,0x40001
     e84:	01a6d703          	lhu	a4,26(a3) # 4000101a <_eusrstack+0x1fff901a>
d:\Electromic\business_card\obj/../src/Main.c:237
    R8_USB_INT_FG = 0xFF;
    R8_UDEV_CTRL = RB_UD_PD_DIS | RB_UD_PORT_EN;
    R8_USB_INT_EN = RB_UIE_SUSPEND | RB_UIE_BUS_RST | RB_UIE_TRANSFER;

    PFIC_EnableIRQ(USB_IRQn);
    DelayMs(100);
     e88:	06400513          	li	a0,100
d:\Electromic\business_card\obj/../src/Main.c:240

    while(1){
        for(i=0;i<KEY_COUNT;i++){ key_prev[i]=key_state[i]; key_state[i]=0; }
     e8c:	98018413          	addi	s0,gp,-1664 # 20000b28 <key_state>
d:\Electromic\business_card\obj/../src/Main.c:231
    R16_PIN_ANALOG_IE |= RB_PIN_USB_IE | RB_PIN_USB_DP_PU;
     e90:	0c076713          	ori	a4,a4,192
     e94:	00e69d23          	sh	a4,26(a3)
d:\Electromic\business_card\obj/../src/Main.c:232
    R8_USB_INT_FG = 0xFF;
     e98:	577d                	li	a4,-1
     e9a:	00e78323          	sb	a4,6(a5)
d:\Electromic\business_card\obj/../src/Main.c:233
    R8_UDEV_CTRL = RB_UD_PD_DIS | RB_UD_PORT_EN;
     e9e:	f8100713          	li	a4,-127
     ea2:	00e780a3          	sb	a4,1(a5)
d:\Electromic\business_card\obj/../src/Main.c:234
    R8_USB_INT_EN = RB_UIE_SUSPEND | RB_UIE_BUS_RST | RB_UIE_TRANSFER;
     ea6:	471d                	li	a4,7
     ea8:	00e78123          	sb	a4,2(a5)
PFIC_EnableIRQ():
d:\Electromic\business_card\RVMSIS/core_riscv.h:112
 *
 * @param   IRQn    - Interrupt Numbers
 */
RV_STATIC_INLINE void PFIC_EnableIRQ(IRQn_Type IRQn)
{
    PFIC->IENR[((uint32_t)(IRQn) >> 5)] = (1 << ((uint32_t)(IRQn)&0x1F));
     eac:	e000e7b7          	lui	a5,0xe000e
     eb0:	00400737          	lui	a4,0x400
     eb4:	10e7a023          	sw	a4,256(a5) # e000e100 <_eusrstack+0xc0006100>
main():
d:\Electromic\business_card\obj/../src/Main.c:240
        for(i=0;i<KEY_COUNT;i++){ key_prev[i]=key_state[i]; key_state[i]=0; }
     eb8:	95018493          	addi	s1,gp,-1712 # 20000af8 <key_prev>
d:\Electromic\business_card\obj/../src/Main.c:237
    DelayMs(100);
     ebc:	1ffff097          	auipc	ra,0x1ffff
     ec0:	69a080e7          	jalr	1690(ra) # 20000556 <mDelaymS>
d:\Electromic\business_card\obj/../src/Main.c:240
        for(i=0;i<KEY_COUNT;i++){ key_prev[i]=key_state[i]; key_state[i]=0; }
     ec4:	03000913          	li	s2,48
     ec8:	89a2                	mv	s3,s0
     eca:	8a26                	mv	s4,s1
d:\Electromic\business_card\obj/../src/Main.c:215
{
     ecc:	4781                	li	a5,0
d:\Electromic\business_card\obj/../src/Main.c:240 (discriminator 3)
        for(i=0;i<KEY_COUNT;i++){ key_prev[i]=key_state[i]; key_state[i]=0; }
     ece:	00f406b3          	add	a3,s0,a5
     ed2:	0006c703          	lbu	a4,0(a3)
     ed6:	00f48633          	add	a2,s1,a5
     eda:	0785                	addi	a5,a5,1
     edc:	0ff77713          	andi	a4,a4,255
     ee0:	00e60023          	sb	a4,0(a2)
     ee4:	00068023          	sb	zero,0(a3)
     ee8:	ff2793e3          	bne	a5,s2,ece <main+0xa8>
d:\Electromic\business_card\obj/../src/Main.c:241
        fn_pressed=0;
     eec:	80018423          	sb	zero,-2040(gp) # 200009b0 <fn_pressed>
d:\Electromic\business_card\obj/../src/Main.c:242
        MatrixScan();
     ef0:	3951                	jal	b84 <MatrixScan>
     ef2:	4781                	li	a5,0
d:\Electromic\business_card\obj/../src/Main.c:243 (discriminator 4)
        for(i=0;i<KEY_COUNT;i++) if(key_state[i]!=key_prev[i]) break;
     ef4:	00f98733          	add	a4,s3,a5
     ef8:	00074683          	lbu	a3,0(a4) # 400000 <_data_lma+0x3feeec>
     efc:	00fa0733          	add	a4,s4,a5
     f00:	00074703          	lbu	a4,0(a4)
     f04:	0ff77713          	andi	a4,a4,255
     f08:	00d71b63          	bne	a4,a3,f1e <main+0xf8>
     f0c:	0785                	addi	a5,a5,1
d:\Electromic\business_card\obj/../src/Main.c:243 (discriminator 2)
     f0e:	ff2793e3          	bne	a5,s2,ef4 <main+0xce>
d:\Electromic\business_card\obj/../src/Main.c:245
        if(i<KEY_COUNT) SendHIDReport();
        DelayMs(5);
     f12:	4515                	li	a0,5
     f14:	1ffff097          	auipc	ra,0x1ffff
     f18:	642080e7          	jalr	1602(ra) # 20000556 <mDelaymS>
d:\Electromic\business_card\obj/../src/Main.c:240
        for(i=0;i<KEY_COUNT;i++){ key_prev[i]=key_state[i]; key_state[i]=0; }
     f1c:	bf45                	j	ecc <main+0xa6>
d:\Electromic\business_card\obj/../src/Main.c:244
        if(i<KEY_COUNT) SendHIDReport();
     f1e:	3b51                	jal	cb2 <SendHIDReport>
     f20:	bfcd                	j	f12 <main+0xec>

00000f22 <USB_IRQHandler>:
USB_IRQHandler():
d:\Electromic\business_card\obj/../src/Main.c:253

/* ======================== USB õĖŁµ¢Ł ======================== */
void USB_IRQHandler(void) __attribute__((interrupt("WCH-Interrupt-fast")));
void USB_IRQHandler(void)
{
    uint8_t f = R8_USB_INT_FG;
     f22:	400087b7          	lui	a5,0x40008
     f26:	0067c703          	lbu	a4,6(a5) # 40008006 <_eusrstack+0x20000006>
d:\Electromic\business_card\obj/../src/Main.c:256
    if(f & RB_UIE_SUSPEND)  {}
    if(f & RB_UIE_TRANSFER) {}
    if(f & RB_UIE_BUS_RST) {
     f2a:	8b05                	andi	a4,a4,1
     f2c:	cf01                	beqz	a4,f44 <USB_IRQHandler+0x22>
d:\Electromic\business_card\obj/../src/Main.c:257
        R8_USB_DEV_AD = 0;
     f2e:	000781a3          	sb	zero,3(a5)
d:\Electromic\business_card\obj/../src/Main.c:258
        R8_UEP0_CTRL = UEP_R_RES_ACK | UEP_T_RES_NAK;
     f32:	4709                	li	a4,2
     f34:	02e78123          	sb	a4,34(a5)
d:\Electromic\business_card\obj/../src/Main.c:259
        R8_UEP1_CTRL = UEP_R_RES_ACK | UEP_T_RES_NAK | RB_UEP_AUTO_TOG;
     f38:	4749                	li	a4,18
     f3a:	02e78323          	sb	a4,38(a5)
d:\Electromic\business_card\obj/../src/Main.c:260
        R8_USB_INT_FG = RB_UIE_BUS_RST;
     f3e:	4705                	li	a4,1
     f40:	00e78323          	sb	a4,6(a5)
d:\Electromic\business_card\obj/../src/Main.c:262
    }
}
     f44:	30200073          	mret

00000f48 <GPIOA_ModeCfg>:
GPIOA_ModeCfg():
d:\Electromic\business_card\obj/../StdPeriphDriver/CH58x_gpio.c:27
 *
 * @return  none
 */
void GPIOA_ModeCfg(uint32_t pin, GPIOModeTypeDef mode)
{
    switch(mode)
     f48:	4791                	li	a5,4
     f4a:	02b7ee63          	bltu	a5,a1,f86 <GPIOA_ModeCfg+0x3e>
     f4e:	00000717          	auipc	a4,0x0
     f52:	1aa70713          	addi	a4,a4,426 # 10f8 <row_pin+0x20>
     f56:	058a                	slli	a1,a1,0x2
     f58:	95ba                	add	a1,a1,a4
     f5a:	419c                	lw	a5,0(a1)
     f5c:	97ba                	add	a5,a5,a4
     f5e:	8782                	jr	a5
d:\Electromic\business_card\obj/../StdPeriphDriver/CH58x_gpio.c:30
    {
        case GPIO_ModeIN_Floating:
            R32_PA_PD_DRV &= ~pin;
     f60:	400017b7          	lui	a5,0x40001
     f64:	0b47a703          	lw	a4,180(a5) # 400010b4 <_eusrstack+0x1fff90b4>
     f68:	fff54513          	not	a0,a0
     f6c:	8f69                	and	a4,a4,a0
     f6e:	0ae7aa23          	sw	a4,180(a5)
d:\Electromic\business_card\obj/../StdPeriphDriver/CH58x_gpio.c:31
            R32_PA_PU &= ~pin;
     f72:	0b07a703          	lw	a4,176(a5)
d:\Electromic\business_card\obj/../StdPeriphDriver/CH58x_gpio.c:43
            R32_PA_DIR &= ~pin;
            break;

        case GPIO_ModeIN_PD:
            R32_PA_PD_DRV |= pin;
            R32_PA_PU &= ~pin;
     f76:	8f69                	and	a4,a4,a0
     f78:	0ae7a823          	sw	a4,176(a5)
d:\Electromic\business_card\obj/../StdPeriphDriver/CH58x_gpio.c:44
            R32_PA_DIR &= ~pin;
     f7c:	0a07a703          	lw	a4,160(a5)
     f80:	8d79                	and	a0,a0,a4
d:\Electromic\business_card\obj/../StdPeriphDriver/CH58x_gpio.c:54
            R32_PA_DIR |= pin;
            break;

        case GPIO_ModeOut_PP_20mA:
            R32_PA_PD_DRV |= pin;
            R32_PA_DIR |= pin;
     f82:	0aa7a023          	sw	a0,160(a5)
d:\Electromic\business_card\obj/../StdPeriphDriver/CH58x_gpio.c:60
            break;

        default:
            break;
    }
}
     f86:	8082                	ret
d:\Electromic\business_card\obj/../StdPeriphDriver/CH58x_gpio.c:36
            R32_PA_PD_DRV &= ~pin;
     f88:	400017b7          	lui	a5,0x40001
     f8c:	0b47a683          	lw	a3,180(a5) # 400010b4 <_eusrstack+0x1fff90b4>
     f90:	fff54713          	not	a4,a0
     f94:	8ef9                	and	a3,a3,a4
     f96:	0ad7aa23          	sw	a3,180(a5)
d:\Electromic\business_card\obj/../StdPeriphDriver/CH58x_gpio.c:37
            R32_PA_PU |= pin;
     f9a:	0b07a683          	lw	a3,176(a5)
     f9e:	8d55                	or	a0,a0,a3
     fa0:	0aa7a823          	sw	a0,176(a5)
d:\Electromic\business_card\obj/../StdPeriphDriver/CH58x_gpio.c:38
            R32_PA_DIR &= ~pin;
     fa4:	0a07a683          	lw	a3,160(a5)
     fa8:	8f75                	and	a4,a4,a3
     faa:	0ae7a023          	sw	a4,160(a5)
d:\Electromic\business_card\obj/../StdPeriphDriver/CH58x_gpio.c:39
            break;
     fae:	8082                	ret
d:\Electromic\business_card\obj/../StdPeriphDriver/CH58x_gpio.c:42
            R32_PA_PD_DRV |= pin;
     fb0:	400017b7          	lui	a5,0x40001
     fb4:	0b47a703          	lw	a4,180(a5) # 400010b4 <_eusrstack+0x1fff90b4>
     fb8:	8f49                	or	a4,a4,a0
     fba:	0ae7aa23          	sw	a4,180(a5)
d:\Electromic\business_card\obj/../StdPeriphDriver/CH58x_gpio.c:43
            R32_PA_PU &= ~pin;
     fbe:	0b07a703          	lw	a4,176(a5)
     fc2:	fff54513          	not	a0,a0
     fc6:	bf45                	j	f76 <GPIOA_ModeCfg+0x2e>
d:\Electromic\business_card\obj/../StdPeriphDriver/CH58x_gpio.c:48
            R32_PA_PD_DRV &= ~pin;
     fc8:	400017b7          	lui	a5,0x40001
     fcc:	0b47a683          	lw	a3,180(a5) # 400010b4 <_eusrstack+0x1fff90b4>
     fd0:	fff54713          	not	a4,a0
     fd4:	8f75                	and	a4,a4,a3
d:\Electromic\business_card\obj/../StdPeriphDriver/CH58x_gpio.c:53
            R32_PA_PD_DRV |= pin;
     fd6:	0ae7aa23          	sw	a4,180(a5)
d:\Electromic\business_card\obj/../StdPeriphDriver/CH58x_gpio.c:54
            R32_PA_DIR |= pin;
     fda:	0a07a703          	lw	a4,160(a5)
     fde:	8d59                	or	a0,a0,a4
     fe0:	b74d                	j	f82 <GPIOA_ModeCfg+0x3a>
d:\Electromic\business_card\obj/../StdPeriphDriver/CH58x_gpio.c:53
            R32_PA_PD_DRV |= pin;
     fe2:	400017b7          	lui	a5,0x40001
     fe6:	0b47a703          	lw	a4,180(a5) # 400010b4 <_eusrstack+0x1fff90b4>
     fea:	8f49                	or	a4,a4,a0
     fec:	b7ed                	j	fd6 <GPIOA_ModeCfg+0x8e>

00000fee <GPIOAGPPCfg>:
GPIOAGPPCfg():
d:\Electromic\business_card\obj/../StdPeriphDriver/CH58x_gpio.c:257
 */
void GPIOAGPPCfg(FunctionalState s, uint16_t perph)
{
    if(s)
    {
        R16_PIN_ANALOG_IE |= perph;
     fee:	400017b7          	lui	a5,0x40001
     ff2:	01a7d703          	lhu	a4,26(a5) # 4000101a <_eusrstack+0x1fff901a>
d:\Electromic\business_card\obj/../StdPeriphDriver/CH58x_gpio.c:255
    if(s)
     ff6:	c509                	beqz	a0,1000 <GPIOAGPPCfg+0x12>
d:\Electromic\business_card\obj/../StdPeriphDriver/CH58x_gpio.c:257
        R16_PIN_ANALOG_IE |= perph;
     ff8:	8dd9                	or	a1,a1,a4
d:\Electromic\business_card\obj/../StdPeriphDriver/CH58x_gpio.c:261
    }
    else
    {
        R16_PIN_ANALOG_IE &= ~perph;
     ffa:	00b79d23          	sh	a1,26(a5)
d:\Electromic\business_card\obj/../StdPeriphDriver/CH58x_gpio.c:263
    }
}
     ffe:	8082                	ret
d:\Electromic\business_card\obj/../StdPeriphDriver/CH58x_gpio.c:261
        R16_PIN_ANALOG_IE &= ~perph;
    1000:	fff5c593          	not	a1,a1
    1004:	8df9                	and	a1,a1,a4
    1006:	bfd5                	j	ffa <GPIOAGPPCfg+0xc>

00001008 <FnTable>:
    1008:	1e00 201f 2221 0023 0000 0000 0000 0000     ... !"#.........
	...
    1024:	2524 2726 0000 0000 0000 0000 0000 0000     $%&'............
	...

00001040 <KeyMap>:
    1040:	0000 0100 0200 0300 0400 0500 0600 0001     ................
    1050:	0101 0201 0301 0401 0501 0601 0002 0102     ................
    1060:	0202 0302 0402 0502 0602 0003 0103 0203     ................
    1070:	0303 0403 0503 0603 0204 0304 0404 0504     ................
    1080:	0604 0205 0305 0405 0505 0605 0206 0306     ................
    1090:	0406 0506 0606 0207 0307 0407 0507 0607     ................

000010a0 <KeyTable>:
    10a0:	1429 081a 1715 2b1c 1604 0907 0b0a 1de1     )......+........
    10b0:	061b 0519 e011 e2e3 2c00 2c2c 0c18 1312     .........,,,....
    10c0:	002a 0d00 0f0e 2833 0000 3610 5237 0038     *.....3(...67R8.
    10d0:	2c00 5000 4f51 0000                         .,.PQO..

000010d8 <row_pin>:
    10d8:	0040 0000 0001 0000 0002 0000 0004 0000     @...............
    10e8:	0080 0000 0100 0000 0200 0000 0200 0000     ................
    10f8:	fe68 ffff fe90 ffff feb8 ffff fed0 ffff     h...............
    1108:	feea ffff                                   ....

0000110c <TKC>:
    110c:	0100 0302 0504 0006                         ........
