
CH582M.elf:     file format elf32-littleriscv
CH582M.elf
architecture: riscv:rv32, flags 0x00000112:
EXEC_P, HAS_SYMS, D_PAGED
start address 0x00000000

Program Header:
    LOAD off    0x00001000 vaddr 0x00000000 paddr 0x00000000 align 2**12
         filesz 0x00000004 memsz 0x00000004 flags r-x
    LOAD off    0x00002000 vaddr 0x20000000 paddr 0x00000004 align 2**12
         filesz 0x000009a4 memsz 0x000009a4 flags r-x
    LOAD off    0x000029a8 vaddr 0x000009a8 paddr 0x000009a8 align 2**12
         filesz 0x00000918 memsz 0x00000918 flags r-x
    LOAD off    0x000039a4 vaddr 0x200009a4 paddr 0x000012c0 align 2**12
         filesz 0x00000000 memsz 0x00000004 flags rw-
    LOAD off    0x000039a8 vaddr 0x200009a8 paddr 0x000012c0 align 2**12
         filesz 0x00000000 memsz 0x00000228 flags rw-
    LOAD off    0x00003e00 vaddr 0x20007e00 paddr 0x20007e00 align 2**12
         filesz 0x00000000 memsz 0x00000200 flags rw-

Sections:
Idx Name            Size      VMA       LMA       File off  Algn  Flags
  0 .init           00000004  00000000  00000000  00001000  2**1  CONTENTS, ALLOC, LOAD, READONLY, CODE
  1 .highcodelalign 00000000  00000004  00000004  000032c0  2**0  CONTENTS
  2 .highcode       000009a4  20000000  00000004  00002000  2**1  CONTENTS, ALLOC, LOAD, READONLY, CODE
  3 .text           00000918  000009a8  000009a8  000029a8  2**2  CONTENTS, ALLOC, LOAD, READONLY, CODE
  4 .fini           00000000  000012c0  000012c0  000032c0  2**0  CONTENTS, ALLOC, LOAD, CODE
  5 .dlalign        00000000  000012c0  000012c0  000032c0  2**0  CONTENTS
  6 .data           00000004  200009a4  000012c0  000039a4  2**0  ALLOC
  7 .bss            00000228  200009a8  000012c0  000039a8  2**2  ALLOC
  8 .stack          00000200  20007e00  20007e00  00003e00  2**0  ALLOC
  9 .debug_info     000040a5  00000000  00000000  000032c0  2**0  CONTENTS, READONLY, DEBUGGING
 10 .debug_abbrev   00000af6  00000000  00000000  00007365  2**0  CONTENTS, READONLY, DEBUGGING
 11 .debug_loc      00000ec1  00000000  00000000  00007e5b  2**0  CONTENTS, READONLY, DEBUGGING
 12 .debug_aranges  00000160  00000000  00000000  00008d20  2**3  CONTENTS, READONLY, DEBUGGING
 13 .debug_ranges   00000190  00000000  00000000  00008e80  2**3  CONTENTS, READONLY, DEBUGGING
 14 .debug_line     0000349e  00000000  00000000  00009010  2**0  CONTENTS, READONLY, DEBUGGING
 15 .debug_str      00000fe2  00000000  00000000  0000c4ae  2**0  CONTENTS, READONLY, DEBUGGING
 16 .comment        00000033  00000000  00000000  0000d490  2**0  CONTENTS, READONLY
 17 .debug_frame    00000314  00000000  00000000  0000d4c4  2**2  CONTENTS, READONLY, DEBUGGING
 18 .stabstr        00000117  00000000  00000000  0000d7d8  2**0  CONTENTS, READONLY, DEBUGGING
SYMBOL TABLE:
00000000 l    d  .init	00000000 .init
00000004 l    d  .highcodelalign	00000000 .highcodelalign
20000000 l    d  .highcode	00000000 .highcode
000009a8 l    d  .text	00000000 .text
000012c0 l    d  .fini	00000000 .fini
000012c0 l    d  .dlalign	00000000 .dlalign
200009a4 l    d  .data	00000000 .data
200009a8 l    d  .bss	00000000 .bss
20007e00 l    d  .stack	00000000 .stack
00000000 l    d  .debug_info	00000000 .debug_info
00000000 l    d  .debug_abbrev	00000000 .debug_abbrev
00000000 l    d  .debug_loc	00000000 .debug_loc
00000000 l    d  .debug_aranges	00000000 .debug_aranges
00000000 l    d  .debug_ranges	00000000 .debug_ranges
00000000 l    d  .debug_line	00000000 .debug_line
00000000 l    d  .debug_str	00000000 .debug_str
00000000 l    d  .comment	00000000 .comment
00000000 l    d  .debug_frame	00000000 .debug_frame
00000000 l    d  .stabstr	00000000 .stabstr
00000000 l    df *ABS*	00000000 ./Startup/startup_CH583.o
20000000 l       .highcode	00000000 _vector_base
00000000 l    df *ABS*	00000000 CH58x_sys.c
00000000 l    df *ABS*	00000000 ISP583.c
20000590 l       .highcode	00000000 .loop18
2000059e l       .highcode	00000000 .loop29
200005ac l       .highcode	00000000 .loop40
20000838 l       .highcode	00000000 .loop402
00000000 l    df *ABS*	00000000 Main.c
00000a86 l     F .text	00000042 TKey_Convert.constprop.0
000012b8 l     O .text	00000007 CSWTCH.24
00000000 l    df *ABS*	00000000 CH58x_gpio.c
00000000 l    df *ABS*	00000000 close.c
200005ac g     F .highcode	0000000e FLASH_ROM_OUT
00000af0 g     F .text	0000007e R8_Detect
200011a8 g       .data	00000000 __global_pointer$
20000548 g     F .highcode	0000000e mDelayuS
2000048a  w    F .highcode	000000be HardFault_Handler
20000090  w      .highcode	00000000 GPIOB_IRQHandler
200009b0 g     O .bss	00000008 HIDKeyBuffPrev
20000090  w      .highcode	00000000 GPIOA_IRQHandler
20000090  w      .highcode	00000000 SysTick_Handler
20000090  w      .highcode	00000000 NMI_Handler
20000090  w      .highcode	00000000 UART1_IRQHandler
200009a8 g       .bss	00000000 _sbss
00000200 g       *ABS*	00000000 __stack_size
2000059e g     F .highcode	0000000e FLASH_ROM_IN
20000090  w      .highcode	00000000 UART0_IRQHandler
0000118a g     F .text	0000001a GPIOAGPPCfg
00000004 g       .init	00000000 _einit
20000090  w      .highcode	00000000 BB_IRQHandler
2000063a g     F .highcode	0000036a FLASH_EEPROM_CMD
20000090  w      .highcode	00000000 Break_Point_Handler
000010e4 g     F .text	000000a6 GPIOB_ModeCfg
20000090  w      .highcode	00000000 TMR0_IRQHandler
2000057e g     F .highcode	00000012 FLASH_ROM_BEG
20000556 g     F .highcode	00000028 mDelaymS
20000090  w      .highcode	00000000 Ecall_M_Mode_Handler
20007e00 g       .stack	00000000 _heap_end
200005ba g     F .highcode	00000048 FLASH_ROM_ADDR
20000090  w      .highcode	00000000 RTC_IRQHandler
00000ac8 g     F .text	00000028 R8_Init
20000bd0 g       .bss	00000000 _ebss
200009c0 g     O .bss	000000c0 EP0_Databuf
20000602 g     F .highcode	00000038 FLASH_ROM_WAIT
20000090  w      .highcode	00000000 UART2_IRQHandler
20000090  w      .highcode	00000000 PWMX_IRQHandler
200009b8 g     O .bss	00000001 fn_pressed
20000a80 g     O .bss	00000080 EP1_Databuf
00000000 g       .init	00000000 _start
20000090  w      .highcode	00000000 ADC_IRQHandler
20000000 g       .highcode	00000000 _highcode_vma_start
00000c4c g     F .text	000001c4 MatrixScan
20000090  w      .highcode	00000000 TMR2_IRQHandler
200009bc g     O .bss	00000004 IRQ_STA
200009a4 g       .data	00000000 _data_vma
20000092 g     F .highcode	00000386 SetSysClock
000010be g     F .text	00000026 USB_IRQHandler
0000120c g     O .text	00000060 KeyMap
20000090  w      .highcode	00000000 I2C_IRQHandler
00000fc4 g     F .text	000000fa main
20000090  w      .highcode	00000000 USB2_IRQHandler
00000e10 g     F .text	000001b4 SendHIDReport
00000004 g       .highcodelalign	00000000 _highcode_lma
20000090  w      .highcode	00000000 LLE_IRQHandler
00000000 g       .init	00000000 _sinit
20000090  w      .highcode	00000000 WDOG_BAT_IRQHandler
20000090  w      .highcode	00000000 Ecall_U_Mode_Handler
200009a8 g     O .bss	00000008 HIDKeyBuff
20000090  w      .highcode	00000000 TMR3_IRQHandler
20000b60 g     O .bss	00000070 tkey_base
20008000 g       .stack	00000000 _eusrstack
20000090  w      .highcode	00000000 SW_Handler
000011d4 g     O .text	00000038 FnTable
200009a8 g       .data	00000000 _edata
20000090  w      .highcode	00000000 SPI0_IRQHandler
20000bd0 g       .bss	00000000 _end
200009a4 g       .highcode	00000000 _highcode_vma_end
000012c0 g       .dlalign	00000000 _data_lma
00000b6e g     F .text	000000de TKey_Init
0000126c g     O .text	00000038 KeyTable
000009a8  w      .text	00000000 handle_reset
20000090  w      .highcode	00000000 UART3_IRQHandler
20000590 g     F .highcode	0000000e FLASH_ROM_END
20000090  w      .highcode	00000000 TMR1_IRQHandler
20000b30 g     O .bss	00000030 key_state
20000b00 g     O .bss	00000030 key_prev
20000418 g     F .highcode	00000072 SYS_ResetExecute



Disassembly of section .init:

00000000 <_sinit>:
_start():
d:\Electromic\business_card\obj/../Startup/startup_CH583.S:17

	.section	.init,"ax",@progbits
	.global	_start
	.align	1
_start:
	j	handle_reset
   0:	1a90006f          	j	9a8 <handle_reset>

Disassembly of section .highcode:

20000000 <_highcode_vma_start>:
	...
_vector_base():
20000008:	0090                	addi	a2,sp,64
2000000a:	2000                	fld	fs0,0(s0)
2000000c:	048a                	slli	s1,s1,0x2
2000000e:	2000                	fld	fs0,0(s0)
20000010:	bda9                	j	1ffffe6a <_data_lma+0x1fffebaa>
20000012:	f3f9                	bnez	a5,1fffffd8 <_data_lma+0x1fffed18>
20000014:	0090                	addi	a2,sp,64
20000016:	2000                	fld	fs0,0(s0)
	...
20000020:	0090                	addi	a2,sp,64
20000022:	2000                	fld	fs0,0(s0)
20000024:	0090                	addi	a2,sp,64
20000026:	2000                	fld	fs0,0(s0)
	...
20000030:	0090                	addi	a2,sp,64
20000032:	2000                	fld	fs0,0(s0)
20000034:	0000                	unimp
20000036:	0000                	unimp
20000038:	0090                	addi	a2,sp,64
2000003a:	2000                	fld	fs0,0(s0)
2000003c:	0000                	unimp
2000003e:	0000                	unimp
20000040:	0090                	addi	a2,sp,64
20000042:	2000                	fld	fs0,0(s0)
20000044:	0090                	addi	a2,sp,64
20000046:	2000                	fld	fs0,0(s0)
20000048:	0090                	addi	a2,sp,64
2000004a:	2000                	fld	fs0,0(s0)
2000004c:	0090                	addi	a2,sp,64
2000004e:	2000                	fld	fs0,0(s0)
20000050:	0090                	addi	a2,sp,64
20000052:	2000                	fld	fs0,0(s0)
20000054:	0090                	addi	a2,sp,64
20000056:	2000                	fld	fs0,0(s0)
20000058:	10be                	slli	ra,ra,0x2f
2000005a:	0000                	unimp
2000005c:	0090                	addi	a2,sp,64
2000005e:	2000                	fld	fs0,0(s0)
20000060:	0090                	addi	a2,sp,64
20000062:	2000                	fld	fs0,0(s0)
20000064:	0090                	addi	a2,sp,64
20000066:	2000                	fld	fs0,0(s0)
20000068:	0090                	addi	a2,sp,64
2000006a:	2000                	fld	fs0,0(s0)
2000006c:	0090                	addi	a2,sp,64
2000006e:	2000                	fld	fs0,0(s0)
20000070:	0090                	addi	a2,sp,64
20000072:	2000                	fld	fs0,0(s0)
20000074:	0090                	addi	a2,sp,64
20000076:	2000                	fld	fs0,0(s0)
20000078:	0090                	addi	a2,sp,64
2000007a:	2000                	fld	fs0,0(s0)
2000007c:	0090                	addi	a2,sp,64
2000007e:	2000                	fld	fs0,0(s0)
20000080:	0090                	addi	a2,sp,64
20000082:	2000                	fld	fs0,0(s0)
20000084:	0090                	addi	a2,sp,64
20000086:	2000                	fld	fs0,0(s0)
20000088:	0090                	addi	a2,sp,64
2000008a:	2000                	fld	fs0,0(s0)
2000008c:	0090                	addi	a2,sp,64
2000008e:	2000                	fld	fs0,0(s0)

20000090 <ADC_IRQHandler>:
GPIOB_IRQHandler():
d:\Electromic\business_card\obj/../Startup/startup_CH583.S:121
TMR3_IRQHandler:
UART2_IRQHandler:
UART3_IRQHandler:
WDOG_BAT_IRQHandler: 
1:  
	j 1b
20000090:	a001                	j	20000090 <ADC_IRQHandler>

20000092 <SetSysClock>:
sys_safe_access_enable():
d:\Electromic\business_card\StdPeriphDriver\inc/CH58x_sys.h:182
 * within the valid period. The safe mode will be automatically 
 * terminated after the above validity period is exceeded.
 */
 __attribute__((always_inline)) static inline void sys_safe_access_enable(void)
{
   if(read_csr(0x800)&0x08)
20000092:	80002773          	csrr	a4,0x800
20000096:	8b21                	andi	a4,a4,8
20000098:	81418793          	addi	a5,gp,-2028 # 200009bc <IRQ_STA>
2000009c:	cb09                	beqz	a4,200000ae <SetSysClock+0x1c>
d:\Electromic\business_card\StdPeriphDriver\inc/CH58x_sys.h:184
   {
       IRQ_STA = read_csr(0x800);
2000009e:	80002773          	csrr	a4,0x800
200000a2:	80e1aa23          	sw	a4,-2028(gp) # 200009bc <IRQ_STA>
d:\Electromic\business_card\StdPeriphDriver\inc/CH58x_sys.h:185
       write_csr(0x800, (IRQ_STA&(~0x08)));
200000a6:	4398                	lw	a4,0(a5)
200000a8:	9b5d                	andi	a4,a4,-9
200000aa:	80071073          	csrw	0x800,a4
d:\Electromic\business_card\StdPeriphDriver\inc/CH58x_sys.h:187
   }
   SAFEOPERATE;
200000ae:	0000100f          	fence.i
d:\Electromic\business_card\StdPeriphDriver\inc/CH58x_sys.h:188
   R8_SAFE_ACCESS_SIG = SAFE_ACCESS_SIG1;
200000b2:	40001737          	lui	a4,0x40001
200000b6:	05700693          	li	a3,87
200000ba:	04d70023          	sb	a3,64(a4) # 40001040 <_eusrstack+0x1fff9040>
d:\Electromic\business_card\StdPeriphDriver\inc/CH58x_sys.h:189
   R8_SAFE_ACCESS_SIG = SAFE_ACCESS_SIG2;
200000be:	fa800693          	li	a3,-88
200000c2:	04d70023          	sb	a3,64(a4)
d:\Electromic\business_card\StdPeriphDriver\inc/CH58x_sys.h:190
   SAFEOPERATE;
200000c6:	0000100f          	fence.i
SetSysClock():
d:\Electromic\business_card\obj/../StdPeriphDriver/CH58x_sys.c:30
__HIGH_CODE
void SetSysClock(SYS_CLKTypeDef sc)
{
    uint32_t i;
    sys_safe_access_enable();
    R8_PLL_CONFIG &= ~(1 << 5); //
200000ca:	04b74683          	lbu	a3,75(a4)
200000ce:	0df6f693          	andi	a3,a3,223
200000d2:	04d705a3          	sb	a3,75(a4)
sys_safe_access_disable():
d:\Electromic\business_card\StdPeriphDriver\inc/CH58x_sys.h:195
}

__attribute__((always_inline)) static inline void sys_safe_access_disable(void)
{
   R8_SAFE_ACCESS_SIG = 0;
200000d6:	04070023          	sb	zero,64(a4)
d:\Electromic\business_card\StdPeriphDriver\inc/CH58x_sys.h:196
   write_csr(0x800, read_csr(0x800)|(IRQ_STA&0x08));
200000da:	80002673          	csrr	a2,0x800
200000de:	4394                	lw	a3,0(a5)
200000e0:	8aa1                	andi	a3,a3,8
200000e2:	8ed1                	or	a3,a3,a2
200000e4:	80069073          	csrw	0x800,a3
d:\Electromic\business_card\StdPeriphDriver\inc/CH58x_sys.h:197
   IRQ_STA = 0;
200000e8:	8001aa23          	sw	zero,-2028(gp) # 200009bc <IRQ_STA>
d:\Electromic\business_card\StdPeriphDriver\inc/CH58x_sys.h:198
   SAFEOPERATE;
200000ec:	0000100f          	fence.i
SetSysClock():
d:\Electromic\business_card\obj/../StdPeriphDriver/CH58x_sys.c:32
    sys_safe_access_disable();
    if(sc & 0x20)
200000f0:	02057693          	andi	a3,a0,32
200000f4:	18068463          	beqz	a3,2000027c <SetSysClock+0x1ea>
d:\Electromic\business_card\obj/../StdPeriphDriver/CH58x_sys.c:34
    { // HSE div
        if(!(R8_HFCK_PWR_CTRL & RB_CLK_XT32M_PON))
200000f8:	00a74703          	lbu	a4,10(a4)
200000fc:	8b11                	andi	a4,a4,4
200000fe:	e725                	bnez	a4,20000166 <SetSysClock+0xd4>
sys_safe_access_enable():
d:\Electromic\business_card\StdPeriphDriver\inc/CH58x_sys.h:182
   if(read_csr(0x800)&0x08)
20000100:	80002773          	csrr	a4,0x800
20000104:	8b21                	andi	a4,a4,8
20000106:	cb09                	beqz	a4,20000118 <SetSysClock+0x86>
d:\Electromic\business_card\StdPeriphDriver\inc/CH58x_sys.h:184
       IRQ_STA = read_csr(0x800);
20000108:	80002773          	csrr	a4,0x800
2000010c:	80e1aa23          	sw	a4,-2028(gp) # 200009bc <IRQ_STA>
d:\Electromic\business_card\StdPeriphDriver\inc/CH58x_sys.h:185
       write_csr(0x800, (IRQ_STA&(~0x08)));
20000110:	4398                	lw	a4,0(a5)
20000112:	9b5d                	andi	a4,a4,-9
20000114:	80071073          	csrw	0x800,a4
d:\Electromic\business_card\StdPeriphDriver\inc/CH58x_sys.h:187
   SAFEOPERATE;
20000118:	0000100f          	fence.i
d:\Electromic\business_card\StdPeriphDriver\inc/CH58x_sys.h:188
   R8_SAFE_ACCESS_SIG = SAFE_ACCESS_SIG1;
2000011c:	40001737          	lui	a4,0x40001
20000120:	05700693          	li	a3,87
20000124:	04d70023          	sb	a3,64(a4) # 40001040 <_eusrstack+0x1fff9040>
d:\Electromic\business_card\StdPeriphDriver\inc/CH58x_sys.h:189
   R8_SAFE_ACCESS_SIG = SAFE_ACCESS_SIG2;
20000128:	fa800693          	li	a3,-88
2000012c:	04d70023          	sb	a3,64(a4)
d:\Electromic\business_card\StdPeriphDriver\inc/CH58x_sys.h:190
   SAFEOPERATE;
20000130:	0000100f          	fence.i
SetSysClock():
d:\Electromic\business_card\obj/../StdPeriphDriver/CH58x_sys.c:37
        {
            sys_safe_access_enable();
            R8_HFCK_PWR_CTRL |= RB_CLK_XT32M_PON; // HSE power on
20000134:	00a74683          	lbu	a3,10(a4)
20000138:	0046e693          	ori	a3,a3,4
2000013c:	00d70523          	sb	a3,10(a4)
sys_safe_access_disable():
d:\Electromic\business_card\StdPeriphDriver\inc/CH58x_sys.h:195
   R8_SAFE_ACCESS_SIG = 0;
20000140:	04070023          	sb	zero,64(a4)
d:\Electromic\business_card\StdPeriphDriver\inc/CH58x_sys.h:196
   write_csr(0x800, read_csr(0x800)|(IRQ_STA&0x08));
20000144:	800026f3          	csrr	a3,0x800
20000148:	4398                	lw	a4,0(a5)
2000014a:	8b21                	andi	a4,a4,8
2000014c:	8f55                	or	a4,a4,a3
2000014e:	80071073          	csrw	0x800,a4
d:\Electromic\business_card\StdPeriphDriver\inc/CH58x_sys.h:197
   IRQ_STA = 0;
20000152:	8001aa23          	sw	zero,-2028(gp) # 200009bc <IRQ_STA>
d:\Electromic\business_card\StdPeriphDriver\inc/CH58x_sys.h:198
   SAFEOPERATE;
20000156:	0000100f          	fence.i
2000015a:	4b000713          	li	a4,1200
SetSysClock():
d:\Electromic\business_card\obj/../StdPeriphDriver/CH58x_sys.c:41 (discriminator 3)
            sys_safe_access_disable();
            for(i = 0; i < 1200; i++)
            {
                __nop();
2000015e:	0001                	nop
d:\Electromic\business_card\obj/../StdPeriphDriver/CH58x_sys.c:42 (discriminator 3)
                __nop();
20000160:	0001                	nop
20000162:	177d                	addi	a4,a4,-1
d:\Electromic\business_card\obj/../StdPeriphDriver/CH58x_sys.c:39 (discriminator 3)
            for(i = 0; i < 1200; i++)
20000164:	ff6d                	bnez	a4,2000015e <SetSysClock+0xcc>
sys_safe_access_enable():
d:\Electromic\business_card\StdPeriphDriver\inc/CH58x_sys.h:182
   if(read_csr(0x800)&0x08)
20000166:	80002773          	csrr	a4,0x800
2000016a:	8b21                	andi	a4,a4,8
2000016c:	cb09                	beqz	a4,2000017e <SetSysClock+0xec>
d:\Electromic\business_card\StdPeriphDriver\inc/CH58x_sys.h:184
       IRQ_STA = read_csr(0x800);
2000016e:	80002773          	csrr	a4,0x800
20000172:	80e1aa23          	sw	a4,-2028(gp) # 200009bc <IRQ_STA>
d:\Electromic\business_card\StdPeriphDriver\inc/CH58x_sys.h:185
       write_csr(0x800, (IRQ_STA&(~0x08)));
20000176:	4398                	lw	a4,0(a5)
20000178:	9b5d                	andi	a4,a4,-9
2000017a:	80071073          	csrw	0x800,a4
d:\Electromic\business_card\StdPeriphDriver\inc/CH58x_sys.h:187
   SAFEOPERATE;
2000017e:	0000100f          	fence.i
d:\Electromic\business_card\StdPeriphDriver\inc/CH58x_sys.h:188
   R8_SAFE_ACCESS_SIG = SAFE_ACCESS_SIG1;
20000182:	40001737          	lui	a4,0x40001
20000186:	05700693          	li	a3,87
2000018a:	04d70023          	sb	a3,64(a4) # 40001040 <_eusrstack+0x1fff9040>
d:\Electromic\business_card\StdPeriphDriver\inc/CH58x_sys.h:189
   R8_SAFE_ACCESS_SIG = SAFE_ACCESS_SIG2;
2000018e:	fa800693          	li	a3,-88
20000192:	04d70023          	sb	a3,64(a4)
d:\Electromic\business_card\StdPeriphDriver\inc/CH58x_sys.h:190
   SAFEOPERATE;
20000196:	0000100f          	fence.i
SetSysClock():
d:\Electromic\business_card\obj/../StdPeriphDriver/CH58x_sys.c:47
            }
        }

        sys_safe_access_enable();
        R16_CLK_SYS_CFG = (0 << 6) | (sc & 0x1f);
2000019a:	897d                	andi	a0,a0,31
2000019c:	00a71423          	sh	a0,8(a4)
d:\Electromic\business_card\obj/../StdPeriphDriver/CH58x_sys.c:48
        __nop();
200001a0:	0001                	nop
d:\Electromic\business_card\obj/../StdPeriphDriver/CH58x_sys.c:49
        __nop();
200001a2:	0001                	nop
d:\Electromic\business_card\obj/../StdPeriphDriver/CH58x_sys.c:50
        __nop();
200001a4:	0001                	nop
d:\Electromic\business_card\obj/../StdPeriphDriver/CH58x_sys.c:51
        __nop();
200001a6:	0001                	nop
sys_safe_access_disable():
d:\Electromic\business_card\StdPeriphDriver\inc/CH58x_sys.h:195
   R8_SAFE_ACCESS_SIG = 0;
200001a8:	04070023          	sb	zero,64(a4)
d:\Electromic\business_card\StdPeriphDriver\inc/CH58x_sys.h:196
   write_csr(0x800, read_csr(0x800)|(IRQ_STA&0x08));
200001ac:	800026f3          	csrr	a3,0x800
200001b0:	4398                	lw	a4,0(a5)
200001b2:	8b21                	andi	a4,a4,8
200001b4:	8f55                	or	a4,a4,a3
200001b6:	80071073          	csrw	0x800,a4
d:\Electromic\business_card\StdPeriphDriver\inc/CH58x_sys.h:197
   IRQ_STA = 0;
200001ba:	8001aa23          	sw	zero,-2028(gp) # 200009bc <IRQ_STA>
d:\Electromic\business_card\StdPeriphDriver\inc/CH58x_sys.h:198
   SAFEOPERATE;
200001be:	0000100f          	fence.i
sys_safe_access_enable():
d:\Electromic\business_card\StdPeriphDriver\inc/CH58x_sys.h:182
   if(read_csr(0x800)&0x08)
200001c2:	80002773          	csrr	a4,0x800
200001c6:	8b21                	andi	a4,a4,8
200001c8:	cb09                	beqz	a4,200001da <SetSysClock+0x148>
d:\Electromic\business_card\StdPeriphDriver\inc/CH58x_sys.h:184
       IRQ_STA = read_csr(0x800);
200001ca:	80002773          	csrr	a4,0x800
200001ce:	80e1aa23          	sw	a4,-2028(gp) # 200009bc <IRQ_STA>
d:\Electromic\business_card\StdPeriphDriver\inc/CH58x_sys.h:185
       write_csr(0x800, (IRQ_STA&(~0x08)));
200001d2:	4398                	lw	a4,0(a5)
200001d4:	9b5d                	andi	a4,a4,-9
200001d6:	80071073          	csrw	0x800,a4
d:\Electromic\business_card\StdPeriphDriver\inc/CH58x_sys.h:187
   SAFEOPERATE;
200001da:	0000100f          	fence.i
d:\Electromic\business_card\StdPeriphDriver\inc/CH58x_sys.h:188
   R8_SAFE_ACCESS_SIG = SAFE_ACCESS_SIG1;
200001de:	40001737          	lui	a4,0x40001
200001e2:	05700693          	li	a3,87
200001e6:	04d70023          	sb	a3,64(a4) # 40001040 <_eusrstack+0x1fff9040>
d:\Electromic\business_card\StdPeriphDriver\inc/CH58x_sys.h:189
   R8_SAFE_ACCESS_SIG = SAFE_ACCESS_SIG2;
200001ea:	fa800693          	li	a3,-88
200001ee:	04d70023          	sb	a3,64(a4)
d:\Electromic\business_card\StdPeriphDriver\inc/CH58x_sys.h:190
   SAFEOPERATE;
200001f2:	0000100f          	fence.i
SetSysClock():
d:\Electromic\business_card\obj/../StdPeriphDriver/CH58x_sys.c:54
        sys_safe_access_disable();
        sys_safe_access_enable();
        SAFEOPERATE;
200001f6:	0000100f          	fence.i
d:\Electromic\business_card\obj/../StdPeriphDriver/CH58x_sys.c:55
        R8_FLASH_CFG = 0X51;
200001fa:	400026b7          	lui	a3,0x40002
200001fe:	05100613          	li	a2,81
d:\Electromic\business_card\obj/../StdPeriphDriver/CH58x_sys.c:88
            sys_safe_access_disable();
        }
        else
        {
            sys_safe_access_enable();
            R8_FLASH_CFG = 0X52;
20000202:	80c683a3          	sb	a2,-2041(a3) # 40001807 <_eusrstack+0x1fff9807>
sys_safe_access_disable():
d:\Electromic\business_card\StdPeriphDriver\inc/CH58x_sys.h:195
   R8_SAFE_ACCESS_SIG = 0;
20000206:	04070023          	sb	zero,64(a4)
d:\Electromic\business_card\StdPeriphDriver\inc/CH58x_sys.h:196
   write_csr(0x800, read_csr(0x800)|(IRQ_STA&0x08));
2000020a:	800026f3          	csrr	a3,0x800
2000020e:	4398                	lw	a4,0(a5)
20000210:	8b21                	andi	a4,a4,8
20000212:	8f55                	or	a4,a4,a3
20000214:	80071073          	csrw	0x800,a4
d:\Electromic\business_card\StdPeriphDriver\inc/CH58x_sys.h:197
   IRQ_STA = 0;
20000218:	8001aa23          	sw	zero,-2028(gp) # 200009bc <IRQ_STA>
d:\Electromic\business_card\StdPeriphDriver\inc/CH58x_sys.h:198
   SAFEOPERATE;
2000021c:	0000100f          	fence.i
sys_safe_access_enable():
d:\Electromic\business_card\StdPeriphDriver\inc/CH58x_sys.h:182
   if(read_csr(0x800)&0x08)
20000220:	80002773          	csrr	a4,0x800
20000224:	8b21                	andi	a4,a4,8
20000226:	cb09                	beqz	a4,20000238 <SetSysClock+0x1a6>
d:\Electromic\business_card\StdPeriphDriver\inc/CH58x_sys.h:184
       IRQ_STA = read_csr(0x800);
20000228:	80002773          	csrr	a4,0x800
2000022c:	80e1aa23          	sw	a4,-2028(gp) # 200009bc <IRQ_STA>
d:\Electromic\business_card\StdPeriphDriver\inc/CH58x_sys.h:185
       write_csr(0x800, (IRQ_STA&(~0x08)));
20000230:	4398                	lw	a4,0(a5)
20000232:	9b5d                	andi	a4,a4,-9
20000234:	80071073          	csrw	0x800,a4
d:\Electromic\business_card\StdPeriphDriver\inc/CH58x_sys.h:187
   SAFEOPERATE;
20000238:	0000100f          	fence.i
d:\Electromic\business_card\StdPeriphDriver\inc/CH58x_sys.h:188
   R8_SAFE_ACCESS_SIG = SAFE_ACCESS_SIG1;
2000023c:	40001737          	lui	a4,0x40001
20000240:	05700693          	li	a3,87
20000244:	04d70023          	sb	a3,64(a4) # 40001040 <_eusrstack+0x1fff9040>
d:\Electromic\business_card\StdPeriphDriver\inc/CH58x_sys.h:189
   R8_SAFE_ACCESS_SIG = SAFE_ACCESS_SIG2;
20000248:	fa800693          	li	a3,-88
2000024c:	04d70023          	sb	a3,64(a4)
d:\Electromic\business_card\StdPeriphDriver\inc/CH58x_sys.h:190
   SAFEOPERATE;
20000250:	0000100f          	fence.i
SetSysClock():
d:\Electromic\business_card\obj/../StdPeriphDriver/CH58x_sys.c:100
        R16_CLK_SYS_CFG |= RB_CLK_SYS_MOD;
        sys_safe_access_disable();
    }
    //¸ü¸ؤFLASH clkµؤا‎¶¯ؤـء¦
    sys_safe_access_enable();
    R8_PLL_CONFIG |= 1 << 7;
20000254:	04b74683          	lbu	a3,75(a4)
20000258:	0806e693          	ori	a3,a3,128
2000025c:	04d705a3          	sb	a3,75(a4)
sys_safe_access_disable():
d:\Electromic\business_card\StdPeriphDriver\inc/CH58x_sys.h:195
   R8_SAFE_ACCESS_SIG = 0;
20000260:	04070023          	sb	zero,64(a4)
d:\Electromic\business_card\StdPeriphDriver\inc/CH58x_sys.h:196
   write_csr(0x800, read_csr(0x800)|(IRQ_STA&0x08));
20000264:	80002773          	csrr	a4,0x800
20000268:	439c                	lw	a5,0(a5)
2000026a:	8ba1                	andi	a5,a5,8
2000026c:	8fd9                	or	a5,a5,a4
2000026e:	80079073          	csrw	0x800,a5
d:\Electromic\business_card\StdPeriphDriver\inc/CH58x_sys.h:197
   IRQ_STA = 0;
20000272:	8001aa23          	sw	zero,-2028(gp) # 200009bc <IRQ_STA>
d:\Electromic\business_card\StdPeriphDriver\inc/CH58x_sys.h:198
   SAFEOPERATE;
20000276:	0000100f          	fence.i
SetSysClock():
d:\Electromic\business_card\obj/../StdPeriphDriver/CH58x_sys.c:102
    sys_safe_access_disable();
}
2000027a:	8082                	ret
d:\Electromic\business_card\obj/../StdPeriphDriver/CH58x_sys.c:59
    else if(sc & 0x40)
2000027c:	04057693          	andi	a3,a0,64
20000280:	14068b63          	beqz	a3,200003d6 <SetSysClock+0x344>
d:\Electromic\business_card\obj/../StdPeriphDriver/CH58x_sys.c:61
        if(!(R8_HFCK_PWR_CTRL & RB_CLK_PLL_PON))
20000284:	00a74703          	lbu	a4,10(a4)
20000288:	8b41                	andi	a4,a4,16
2000028a:	e725                	bnez	a4,200002f2 <SetSysClock+0x260>
sys_safe_access_enable():
d:\Electromic\business_card\StdPeriphDriver\inc/CH58x_sys.h:182
   if(read_csr(0x800)&0x08)
2000028c:	80002773          	csrr	a4,0x800
20000290:	8b21                	andi	a4,a4,8
20000292:	cb09                	beqz	a4,200002a4 <SetSysClock+0x212>
d:\Electromic\business_card\StdPeriphDriver\inc/CH58x_sys.h:184
       IRQ_STA = read_csr(0x800);
20000294:	80002773          	csrr	a4,0x800
20000298:	80e1aa23          	sw	a4,-2028(gp) # 200009bc <IRQ_STA>
d:\Electromic\business_card\StdPeriphDriver\inc/CH58x_sys.h:185
       write_csr(0x800, (IRQ_STA&(~0x08)));
2000029c:	4398                	lw	a4,0(a5)
2000029e:	9b5d                	andi	a4,a4,-9
200002a0:	80071073          	csrw	0x800,a4
d:\Electromic\business_card\StdPeriphDriver\inc/CH58x_sys.h:187
   SAFEOPERATE;
200002a4:	0000100f          	fence.i
d:\Electromic\business_card\StdPeriphDriver\inc/CH58x_sys.h:188
   R8_SAFE_ACCESS_SIG = SAFE_ACCESS_SIG1;
200002a8:	40001737          	lui	a4,0x40001
200002ac:	05700693          	li	a3,87
200002b0:	04d70023          	sb	a3,64(a4) # 40001040 <_eusrstack+0x1fff9040>
d:\Electromic\business_card\StdPeriphDriver\inc/CH58x_sys.h:189
   R8_SAFE_ACCESS_SIG = SAFE_ACCESS_SIG2;
200002b4:	fa800693          	li	a3,-88
200002b8:	04d70023          	sb	a3,64(a4)
d:\Electromic\business_card\StdPeriphDriver\inc/CH58x_sys.h:190
   SAFEOPERATE;
200002bc:	0000100f          	fence.i
SetSysClock():
d:\Electromic\business_card\obj/../StdPeriphDriver/CH58x_sys.c:64
            R8_HFCK_PWR_CTRL |= RB_CLK_PLL_PON; // PLL power on
200002c0:	00a74683          	lbu	a3,10(a4)
200002c4:	0106e693          	ori	a3,a3,16
200002c8:	00d70523          	sb	a3,10(a4)
sys_safe_access_disable():
d:\Electromic\business_card\StdPeriphDriver\inc/CH58x_sys.h:195
   R8_SAFE_ACCESS_SIG = 0;
200002cc:	04070023          	sb	zero,64(a4)
d:\Electromic\business_card\StdPeriphDriver\inc/CH58x_sys.h:196
   write_csr(0x800, read_csr(0x800)|(IRQ_STA&0x08));
200002d0:	800026f3          	csrr	a3,0x800
200002d4:	4398                	lw	a4,0(a5)
200002d6:	8b21                	andi	a4,a4,8
200002d8:	8f55                	or	a4,a4,a3
200002da:	80071073          	csrw	0x800,a4
d:\Electromic\business_card\StdPeriphDriver\inc/CH58x_sys.h:197
   IRQ_STA = 0;
200002de:	8001aa23          	sw	zero,-2028(gp) # 200009bc <IRQ_STA>
d:\Electromic\business_card\StdPeriphDriver\inc/CH58x_sys.h:198
   SAFEOPERATE;
200002e2:	0000100f          	fence.i
200002e6:	7d000713          	li	a4,2000
SetSysClock():
d:\Electromic\business_card\obj/../StdPeriphDriver/CH58x_sys.c:68 (discriminator 3)
                __nop();
200002ea:	0001                	nop
d:\Electromic\business_card\obj/../StdPeriphDriver/CH58x_sys.c:69 (discriminator 3)
                __nop();
200002ec:	0001                	nop
200002ee:	177d                	addi	a4,a4,-1
d:\Electromic\business_card\obj/../StdPeriphDriver/CH58x_sys.c:66 (discriminator 3)
            for(i = 0; i < 2000; i++)
200002f0:	ff6d                	bnez	a4,200002ea <SetSysClock+0x258>
sys_safe_access_enable():
d:\Electromic\business_card\StdPeriphDriver\inc/CH58x_sys.h:182
   if(read_csr(0x800)&0x08)
200002f2:	80002773          	csrr	a4,0x800
200002f6:	8b21                	andi	a4,a4,8
200002f8:	cb09                	beqz	a4,2000030a <SetSysClock+0x278>
d:\Electromic\business_card\StdPeriphDriver\inc/CH58x_sys.h:184
       IRQ_STA = read_csr(0x800);
200002fa:	80002773          	csrr	a4,0x800
200002fe:	80e1aa23          	sw	a4,-2028(gp) # 200009bc <IRQ_STA>
d:\Electromic\business_card\StdPeriphDriver\inc/CH58x_sys.h:185
       write_csr(0x800, (IRQ_STA&(~0x08)));
20000302:	4398                	lw	a4,0(a5)
20000304:	9b5d                	andi	a4,a4,-9
20000306:	80071073          	csrw	0x800,a4
d:\Electromic\business_card\StdPeriphDriver\inc/CH58x_sys.h:187
   SAFEOPERATE;
2000030a:	0000100f          	fence.i
d:\Electromic\business_card\StdPeriphDriver\inc/CH58x_sys.h:188
   R8_SAFE_ACCESS_SIG = SAFE_ACCESS_SIG1;
2000030e:	40001737          	lui	a4,0x40001
20000312:	05700693          	li	a3,87
20000316:	04d70023          	sb	a3,64(a4) # 40001040 <_eusrstack+0x1fff9040>
d:\Electromic\business_card\StdPeriphDriver\inc/CH58x_sys.h:189
   R8_SAFE_ACCESS_SIG = SAFE_ACCESS_SIG2;
2000031a:	fa800693          	li	a3,-88
2000031e:	04d70023          	sb	a3,64(a4)
d:\Electromic\business_card\StdPeriphDriver\inc/CH58x_sys.h:190
   SAFEOPERATE;
20000322:	0000100f          	fence.i
SetSysClock():
d:\Electromic\business_card\obj/../StdPeriphDriver/CH58x_sys.c:73
        R16_CLK_SYS_CFG = (1 << 6) | (sc & 0x1f);
20000326:	01f57693          	andi	a3,a0,31
2000032a:	0406e693          	ori	a3,a3,64
2000032e:	00d71423          	sh	a3,8(a4)
d:\Electromic\business_card\obj/../StdPeriphDriver/CH58x_sys.c:74
        __nop();
20000332:	0001                	nop
d:\Electromic\business_card\obj/../StdPeriphDriver/CH58x_sys.c:75
        __nop();
20000334:	0001                	nop
d:\Electromic\business_card\obj/../StdPeriphDriver/CH58x_sys.c:76
        __nop();
20000336:	0001                	nop
d:\Electromic\business_card\obj/../StdPeriphDriver/CH58x_sys.c:77
        __nop();
20000338:	0001                	nop
sys_safe_access_disable():
d:\Electromic\business_card\StdPeriphDriver\inc/CH58x_sys.h:195
   R8_SAFE_ACCESS_SIG = 0;
2000033a:	04070023          	sb	zero,64(a4)
d:\Electromic\business_card\StdPeriphDriver\inc/CH58x_sys.h:196
   write_csr(0x800, read_csr(0x800)|(IRQ_STA&0x08));
2000033e:	800026f3          	csrr	a3,0x800
20000342:	4398                	lw	a4,0(a5)
20000344:	8b21                	andi	a4,a4,8
20000346:	8f55                	or	a4,a4,a3
20000348:	80071073          	csrw	0x800,a4
d:\Electromic\business_card\StdPeriphDriver\inc/CH58x_sys.h:197
   IRQ_STA = 0;
2000034c:	8001aa23          	sw	zero,-2028(gp) # 200009bc <IRQ_STA>
d:\Electromic\business_card\StdPeriphDriver\inc/CH58x_sys.h:198
   SAFEOPERATE;
20000350:	0000100f          	fence.i
SetSysClock():
d:\Electromic\business_card\obj/../StdPeriphDriver/CH58x_sys.c:79
        if(sc == CLK_SOURCE_PLL_80MHz)
20000354:	04600713          	li	a4,70
20000358:	04e51063          	bne	a0,a4,20000398 <SetSysClock+0x306>
sys_safe_access_enable():
d:\Electromic\business_card\StdPeriphDriver\inc/CH58x_sys.h:182
   if(read_csr(0x800)&0x08)
2000035c:	80002773          	csrr	a4,0x800
20000360:	8b21                	andi	a4,a4,8
20000362:	cb09                	beqz	a4,20000374 <SetSysClock+0x2e2>
d:\Electromic\business_card\StdPeriphDriver\inc/CH58x_sys.h:184
       IRQ_STA = read_csr(0x800);
20000364:	80002773          	csrr	a4,0x800
20000368:	80e1aa23          	sw	a4,-2028(gp) # 200009bc <IRQ_STA>
d:\Electromic\business_card\StdPeriphDriver\inc/CH58x_sys.h:185
       write_csr(0x800, (IRQ_STA&(~0x08)));
2000036c:	4398                	lw	a4,0(a5)
2000036e:	9b5d                	andi	a4,a4,-9
20000370:	80071073          	csrw	0x800,a4
d:\Electromic\business_card\StdPeriphDriver\inc/CH58x_sys.h:187
   SAFEOPERATE;
20000374:	0000100f          	fence.i
d:\Electromic\business_card\StdPeriphDriver\inc/CH58x_sys.h:188
   R8_SAFE_ACCESS_SIG = SAFE_ACCESS_SIG1;
20000378:	40001737          	lui	a4,0x40001
2000037c:	05700693          	li	a3,87
20000380:	04d70023          	sb	a3,64(a4) # 40001040 <_eusrstack+0x1fff9040>
d:\Electromic\business_card\StdPeriphDriver\inc/CH58x_sys.h:189
   R8_SAFE_ACCESS_SIG = SAFE_ACCESS_SIG2;
20000384:	fa800693          	li	a3,-88
20000388:	04d70023          	sb	a3,64(a4)
d:\Electromic\business_card\StdPeriphDriver\inc/CH58x_sys.h:190
   SAFEOPERATE;
2000038c:	0000100f          	fence.i
SetSysClock():
d:\Electromic\business_card\obj/../StdPeriphDriver/CH58x_sys.c:82
            R8_FLASH_CFG = 0X02;
20000390:	400026b7          	lui	a3,0x40002
20000394:	4609                	li	a2,2
20000396:	b5b5                	j	20000202 <SetSysClock+0x170>
sys_safe_access_enable():
d:\Electromic\business_card\StdPeriphDriver\inc/CH58x_sys.h:182
   if(read_csr(0x800)&0x08)
20000398:	80002773          	csrr	a4,0x800
2000039c:	8b21                	andi	a4,a4,8
2000039e:	cb09                	beqz	a4,200003b0 <SetSysClock+0x31e>
d:\Electromic\business_card\StdPeriphDriver\inc/CH58x_sys.h:184
       IRQ_STA = read_csr(0x800);
200003a0:	80002773          	csrr	a4,0x800
200003a4:	80e1aa23          	sw	a4,-2028(gp) # 200009bc <IRQ_STA>
d:\Electromic\business_card\StdPeriphDriver\inc/CH58x_sys.h:185
       write_csr(0x800, (IRQ_STA&(~0x08)));
200003a8:	4398                	lw	a4,0(a5)
200003aa:	9b5d                	andi	a4,a4,-9
200003ac:	80071073          	csrw	0x800,a4
d:\Electromic\business_card\StdPeriphDriver\inc/CH58x_sys.h:187
   SAFEOPERATE;
200003b0:	0000100f          	fence.i
d:\Electromic\business_card\StdPeriphDriver\inc/CH58x_sys.h:188
   R8_SAFE_ACCESS_SIG = SAFE_ACCESS_SIG1;
200003b4:	40001737          	lui	a4,0x40001
200003b8:	05700693          	li	a3,87
200003bc:	04d70023          	sb	a3,64(a4) # 40001040 <_eusrstack+0x1fff9040>
d:\Electromic\business_card\StdPeriphDriver\inc/CH58x_sys.h:189
   R8_SAFE_ACCESS_SIG = SAFE_ACCESS_SIG2;
200003c0:	fa800693          	li	a3,-88
200003c4:	04d70023          	sb	a3,64(a4)
d:\Electromic\business_card\StdPeriphDriver\inc/CH58x_sys.h:190
   SAFEOPERATE;
200003c8:	0000100f          	fence.i
SetSysClock():
d:\Electromic\business_card\obj/../StdPeriphDriver/CH58x_sys.c:88
            R8_FLASH_CFG = 0X52;
200003cc:	400026b7          	lui	a3,0x40002
200003d0:	05200613          	li	a2,82
200003d4:	b53d                	j	20000202 <SetSysClock+0x170>
sys_safe_access_enable():
d:\Electromic\business_card\StdPeriphDriver\inc/CH58x_sys.h:182
   if(read_csr(0x800)&0x08)
200003d6:	80002773          	csrr	a4,0x800
200003da:	8b21                	andi	a4,a4,8
200003dc:	cb09                	beqz	a4,200003ee <SetSysClock+0x35c>
d:\Electromic\business_card\StdPeriphDriver\inc/CH58x_sys.h:184
       IRQ_STA = read_csr(0x800);
200003de:	80002773          	csrr	a4,0x800
200003e2:	80e1aa23          	sw	a4,-2028(gp) # 200009bc <IRQ_STA>
d:\Electromic\business_card\StdPeriphDriver\inc/CH58x_sys.h:185
       write_csr(0x800, (IRQ_STA&(~0x08)));
200003e6:	4398                	lw	a4,0(a5)
200003e8:	9b5d                	andi	a4,a4,-9
200003ea:	80071073          	csrw	0x800,a4
d:\Electromic\business_card\StdPeriphDriver\inc/CH58x_sys.h:187
   SAFEOPERATE;
200003ee:	0000100f          	fence.i
d:\Electromic\business_card\StdPeriphDriver\inc/CH58x_sys.h:188
   R8_SAFE_ACCESS_SIG = SAFE_ACCESS_SIG1;
200003f2:	40001737          	lui	a4,0x40001
200003f6:	05700693          	li	a3,87
200003fa:	04d70023          	sb	a3,64(a4) # 40001040 <_eusrstack+0x1fff9040>
d:\Electromic\business_card\StdPeriphDriver\inc/CH58x_sys.h:189
   R8_SAFE_ACCESS_SIG = SAFE_ACCESS_SIG2;
200003fe:	fa800693          	li	a3,-88
20000402:	04d70023          	sb	a3,64(a4)
d:\Electromic\business_card\StdPeriphDriver\inc/CH58x_sys.h:190
   SAFEOPERATE;
20000406:	0000100f          	fence.i
SetSysClock():
d:\Electromic\business_card\obj/../StdPeriphDriver/CH58x_sys.c:95
        R16_CLK_SYS_CFG |= RB_CLK_SYS_MOD;
2000040a:	00875683          	lhu	a3,8(a4)
2000040e:	0c06e693          	ori	a3,a3,192
20000412:	00d71423          	sh	a3,8(a4)
20000416:	bbc5                	j	20000206 <SetSysClock+0x174>

20000418 <SYS_ResetExecute>:
SYS_ResetExecute():
d:\Electromic\business_card\obj/../StdPeriphDriver/CH58x_sys.c:164
 *
 * @return  none
 */
__HIGH_CODE
void SYS_ResetExecute(void)
{
20000418:	1141                	addi	sp,sp,-16
d:\Electromic\business_card\obj/../StdPeriphDriver/CH58x_sys.c:165
    FLASH_ROM_SW_RESET();
2000041a:	4681                	li	a3,0
2000041c:	4601                	li	a2,0
2000041e:	4581                	li	a1,0
20000420:	4511                	li	a0,4
d:\Electromic\business_card\obj/../StdPeriphDriver/CH58x_sys.c:164
{
20000422:	c606                	sw	ra,12(sp)
d:\Electromic\business_card\obj/../StdPeriphDriver/CH58x_sys.c:165
    FLASH_ROM_SW_RESET();
20000424:	2c19                	jal	2000063a <FLASH_EEPROM_CMD>
sys_safe_access_enable():
d:\Electromic\business_card\StdPeriphDriver\inc/CH58x_sys.h:182
   if(read_csr(0x800)&0x08)
20000426:	800027f3          	csrr	a5,0x800
2000042a:	8ba1                	andi	a5,a5,8
2000042c:	81418693          	addi	a3,gp,-2028 # 200009bc <IRQ_STA>
20000430:	cb89                	beqz	a5,20000442 <SYS_ResetExecute+0x2a>
d:\Electromic\business_card\StdPeriphDriver\inc/CH58x_sys.h:184
       IRQ_STA = read_csr(0x800);
20000432:	800027f3          	csrr	a5,0x800
20000436:	80f1aa23          	sw	a5,-2028(gp) # 200009bc <IRQ_STA>
d:\Electromic\business_card\StdPeriphDriver\inc/CH58x_sys.h:185
       write_csr(0x800, (IRQ_STA&(~0x08)));
2000043a:	429c                	lw	a5,0(a3)
2000043c:	9bdd                	andi	a5,a5,-9
2000043e:	80079073          	csrw	0x800,a5
d:\Electromic\business_card\StdPeriphDriver\inc/CH58x_sys.h:187
   SAFEOPERATE;
20000442:	0000100f          	fence.i
d:\Electromic\business_card\StdPeriphDriver\inc/CH58x_sys.h:188
   R8_SAFE_ACCESS_SIG = SAFE_ACCESS_SIG1;
20000446:	400017b7          	lui	a5,0x40001
2000044a:	05700713          	li	a4,87
2000044e:	04e78023          	sb	a4,64(a5) # 40001040 <_eusrstack+0x1fff9040>
d:\Electromic\business_card\StdPeriphDriver\inc/CH58x_sys.h:189
   R8_SAFE_ACCESS_SIG = SAFE_ACCESS_SIG2;
20000452:	fa800713          	li	a4,-88
20000456:	04e78023          	sb	a4,64(a5)
d:\Electromic\business_card\StdPeriphDriver\inc/CH58x_sys.h:190
   SAFEOPERATE;
2000045a:	0000100f          	fence.i
SYS_ResetExecute():
d:\Electromic\business_card\obj/../StdPeriphDriver/CH58x_sys.c:167
    sys_safe_access_enable();
    R8_RST_WDOG_CTRL |= RB_SOFTWARE_RESET;
2000045e:	0467c703          	lbu	a4,70(a5)
20000462:	00176713          	ori	a4,a4,1
20000466:	04e78323          	sb	a4,70(a5)
sys_safe_access_disable():
d:\Electromic\business_card\StdPeriphDriver\inc/CH58x_sys.h:195
   R8_SAFE_ACCESS_SIG = 0;
2000046a:	04078023          	sb	zero,64(a5)
d:\Electromic\business_card\StdPeriphDriver\inc/CH58x_sys.h:196
   write_csr(0x800, read_csr(0x800)|(IRQ_STA&0x08));
2000046e:	80002773          	csrr	a4,0x800
20000472:	429c                	lw	a5,0(a3)
20000474:	8ba1                	andi	a5,a5,8
20000476:	8fd9                	or	a5,a5,a4
20000478:	80079073          	csrw	0x800,a5
d:\Electromic\business_card\StdPeriphDriver\inc/CH58x_sys.h:197
   IRQ_STA = 0;
2000047c:	8001aa23          	sw	zero,-2028(gp) # 200009bc <IRQ_STA>
d:\Electromic\business_card\StdPeriphDriver\inc/CH58x_sys.h:198
   SAFEOPERATE;
20000480:	0000100f          	fence.i
SYS_ResetExecute():
d:\Electromic\business_card\obj/../StdPeriphDriver/CH58x_sys.c:169
    sys_safe_access_disable();
}
20000484:	40b2                	lw	ra,12(sp)
20000486:	0141                	addi	sp,sp,16
20000488:	8082                	ret

2000048a <HardFault_Handler>:
HardFault_Handler():
d:\Electromic\business_card\obj/../StdPeriphDriver/CH58x_sys.c:304
__INTERRUPT
__HIGH_CODE
__attribute__((weak))
void HardFault_Handler(void)
{
    FLASH_ROM_SW_RESET();
2000048a:	4681                	li	a3,0
2000048c:	4601                	li	a2,0
2000048e:	4581                	li	a1,0
20000490:	4511                	li	a0,4
20000492:	2265                	jal	2000063a <FLASH_EEPROM_CMD>
sys_safe_access_enable():
d:\Electromic\business_card\StdPeriphDriver\inc/CH58x_sys.h:182
   if(read_csr(0x800)&0x08)
20000494:	800027f3          	csrr	a5,0x800
20000498:	8ba1                	andi	a5,a5,8
2000049a:	81418713          	addi	a4,gp,-2028 # 200009bc <IRQ_STA>
2000049e:	cb89                	beqz	a5,200004b0 <HardFault_Handler+0x26>
d:\Electromic\business_card\StdPeriphDriver\inc/CH58x_sys.h:184
       IRQ_STA = read_csr(0x800);
200004a0:	800027f3          	csrr	a5,0x800
200004a4:	80f1aa23          	sw	a5,-2028(gp) # 200009bc <IRQ_STA>
d:\Electromic\business_card\StdPeriphDriver\inc/CH58x_sys.h:185
       write_csr(0x800, (IRQ_STA&(~0x08)));
200004a8:	431c                	lw	a5,0(a4)
200004aa:	9bdd                	andi	a5,a5,-9
200004ac:	80079073          	csrw	0x800,a5
d:\Electromic\business_card\StdPeriphDriver\inc/CH58x_sys.h:187
   SAFEOPERATE;
200004b0:	0000100f          	fence.i
d:\Electromic\business_card\StdPeriphDriver\inc/CH58x_sys.h:188
   R8_SAFE_ACCESS_SIG = SAFE_ACCESS_SIG1;
200004b4:	400017b7          	lui	a5,0x40001
200004b8:	05700693          	li	a3,87
200004bc:	04d78023          	sb	a3,64(a5) # 40001040 <_eusrstack+0x1fff9040>
d:\Electromic\business_card\StdPeriphDriver\inc/CH58x_sys.h:189
   R8_SAFE_ACCESS_SIG = SAFE_ACCESS_SIG2;
200004c0:	fa800693          	li	a3,-88
200004c4:	04d78023          	sb	a3,64(a5)
d:\Electromic\business_card\StdPeriphDriver\inc/CH58x_sys.h:190
   SAFEOPERATE;
200004c8:	0000100f          	fence.i
HardFault_Handler():
d:\Electromic\business_card\obj/../StdPeriphDriver/CH58x_sys.c:306
    sys_safe_access_enable();
    R16_INT32K_TUNE = 0xFFFF;
200004cc:	56fd                	li	a3,-1
200004ce:	02d79623          	sh	a3,44(a5)
sys_safe_access_disable():
d:\Electromic\business_card\StdPeriphDriver\inc/CH58x_sys.h:195
   R8_SAFE_ACCESS_SIG = 0;
200004d2:	04078023          	sb	zero,64(a5)
d:\Electromic\business_card\StdPeriphDriver\inc/CH58x_sys.h:196
   write_csr(0x800, read_csr(0x800)|(IRQ_STA&0x08));
200004d6:	800026f3          	csrr	a3,0x800
200004da:	431c                	lw	a5,0(a4)
200004dc:	8ba1                	andi	a5,a5,8
200004de:	8fd5                	or	a5,a5,a3
200004e0:	80079073          	csrw	0x800,a5
d:\Electromic\business_card\StdPeriphDriver\inc/CH58x_sys.h:197
   IRQ_STA = 0;
200004e4:	8001aa23          	sw	zero,-2028(gp) # 200009bc <IRQ_STA>
d:\Electromic\business_card\StdPeriphDriver\inc/CH58x_sys.h:198
   SAFEOPERATE;
200004e8:	0000100f          	fence.i
sys_safe_access_enable():
d:\Electromic\business_card\StdPeriphDriver\inc/CH58x_sys.h:182
   if(read_csr(0x800)&0x08)
200004ec:	800027f3          	csrr	a5,0x800
200004f0:	8ba1                	andi	a5,a5,8
200004f2:	cb89                	beqz	a5,20000504 <HardFault_Handler+0x7a>
d:\Electromic\business_card\StdPeriphDriver\inc/CH58x_sys.h:184
       IRQ_STA = read_csr(0x800);
200004f4:	800027f3          	csrr	a5,0x800
200004f8:	80f1aa23          	sw	a5,-2028(gp) # 200009bc <IRQ_STA>
d:\Electromic\business_card\StdPeriphDriver\inc/CH58x_sys.h:185
       write_csr(0x800, (IRQ_STA&(~0x08)));
200004fc:	431c                	lw	a5,0(a4)
200004fe:	9bdd                	andi	a5,a5,-9
20000500:	80079073          	csrw	0x800,a5
d:\Electromic\business_card\StdPeriphDriver\inc/CH58x_sys.h:187
   SAFEOPERATE;
20000504:	0000100f          	fence.i
d:\Electromic\business_card\StdPeriphDriver\inc/CH58x_sys.h:188
   R8_SAFE_ACCESS_SIG = SAFE_ACCESS_SIG1;
20000508:	400017b7          	lui	a5,0x40001
2000050c:	05700693          	li	a3,87
20000510:	04d78023          	sb	a3,64(a5) # 40001040 <_eusrstack+0x1fff9040>
d:\Electromic\business_card\StdPeriphDriver\inc/CH58x_sys.h:189
   R8_SAFE_ACCESS_SIG = SAFE_ACCESS_SIG2;
20000514:	fa800693          	li	a3,-88
20000518:	04d78023          	sb	a3,64(a5)
d:\Electromic\business_card\StdPeriphDriver\inc/CH58x_sys.h:190
   SAFEOPERATE;
2000051c:	0000100f          	fence.i
HardFault_Handler():
d:\Electromic\business_card\obj/../StdPeriphDriver/CH58x_sys.c:309
	sys_safe_access_disable();
    sys_safe_access_enable();
    R8_RST_WDOG_CTRL |= RB_SOFTWARE_RESET;
20000520:	0467c683          	lbu	a3,70(a5)
20000524:	0016e693          	ori	a3,a3,1
20000528:	04d78323          	sb	a3,70(a5)
sys_safe_access_disable():
d:\Electromic\business_card\StdPeriphDriver\inc/CH58x_sys.h:195
   R8_SAFE_ACCESS_SIG = 0;
2000052c:	04078023          	sb	zero,64(a5)
d:\Electromic\business_card\StdPeriphDriver\inc/CH58x_sys.h:196
   write_csr(0x800, read_csr(0x800)|(IRQ_STA&0x08));
20000530:	800026f3          	csrr	a3,0x800
20000534:	431c                	lw	a5,0(a4)
20000536:	8ba1                	andi	a5,a5,8
20000538:	8fd5                	or	a5,a5,a3
2000053a:	80079073          	csrw	0x800,a5
d:\Electromic\business_card\StdPeriphDriver\inc/CH58x_sys.h:197
   IRQ_STA = 0;
2000053e:	8001aa23          	sw	zero,-2028(gp) # 200009bc <IRQ_STA>
d:\Electromic\business_card\StdPeriphDriver\inc/CH58x_sys.h:198
   SAFEOPERATE;
20000542:	0000100f          	fence.i
HardFault_Handler():
d:\Electromic\business_card\obj/../StdPeriphDriver/CH58x_sys.c:311 (discriminator 1)
    sys_safe_access_disable();
    while(1);
20000546:	a001                	j	20000546 <HardFault_Handler+0xbc>

20000548 <mDelayuS>:
mDelayuS():
d:\Electromic\business_card\obj/../StdPeriphDriver/CH58x_sys.c:330
{
    uint32_t i;
#if(FREQ_SYS == 80000000)
    i = t * 20;
#elif(FREQ_SYS == 60000000)
    i = t * 15;
20000548:	47bd                	li	a5,15
2000054a:	02f50533          	mul	a0,a0,a5
d:\Electromic\business_card\obj/../StdPeriphDriver/CH58x_sys.c:354 (discriminator 1)
#else
    i = t << 1;
#endif
    do
    {
        __nop();
2000054e:	0001                	nop
d:\Electromic\business_card\obj/../StdPeriphDriver/CH58x_sys.c:355 (discriminator 1)
    } while(--i);
20000550:	157d                	addi	a0,a0,-1
20000552:	fd75                	bnez	a0,2000054e <mDelayuS+0x6>
d:\Electromic\business_card\obj/../StdPeriphDriver/CH58x_sys.c:356
}
20000554:	8082                	ret

20000556 <mDelaymS>:
mDelaymS():
d:\Electromic\business_card\obj/../StdPeriphDriver/CH58x_sys.c:369
 *
 * @return  none
 */
__HIGH_CODE
void mDelaymS(uint16_t t)
{
20000556:	1141                	addi	sp,sp,-16
20000558:	c422                	sw	s0,8(sp)
2000055a:	c226                	sw	s1,4(sp)
2000055c:	c606                	sw	ra,12(sp)
2000055e:	84aa                	mv	s1,a0
d:\Electromic\business_card\obj/../StdPeriphDriver/CH58x_sys.c:372
    uint16_t i;

    for(i = 0; i < t; i++)
20000560:	4401                	li	s0,0
d:\Electromic\business_card\obj/../StdPeriphDriver/CH58x_sys.c:372 (discriminator 1)
20000562:	00941763          	bne	s0,s1,20000570 <mDelaymS+0x1a>
d:\Electromic\business_card\obj/../StdPeriphDriver/CH58x_sys.c:376
    {
        mDelayuS(1000);
    }
}
20000566:	40b2                	lw	ra,12(sp)
20000568:	4422                	lw	s0,8(sp)
2000056a:	4492                	lw	s1,4(sp)
2000056c:	0141                	addi	sp,sp,16
2000056e:	8082                	ret
d:\Electromic\business_card\obj/../StdPeriphDriver/CH58x_sys.c:372 (discriminator 3)
    for(i = 0; i < t; i++)
20000570:	0405                	addi	s0,s0,1
d:\Electromic\business_card\obj/../StdPeriphDriver/CH58x_sys.c:374 (discriminator 3)
        mDelayuS(1000);
20000572:	3e800513          	li	a0,1000
d:\Electromic\business_card\obj/../StdPeriphDriver/CH58x_sys.c:372 (discriminator 3)
    for(i = 0; i < t; i++)
20000576:	0442                	slli	s0,s0,0x10
d:\Electromic\business_card\obj/../StdPeriphDriver/CH58x_sys.c:374 (discriminator 3)
        mDelayuS(1000);
20000578:	3fc1                	jal	20000548 <mDelayuS>
d:\Electromic\business_card\obj/../StdPeriphDriver/CH58x_sys.c:372 (discriminator 3)
    for(i = 0; i < t; i++)
2000057a:	8041                	srli	s0,s0,0x10
2000057c:	b7dd                	j	20000562 <mDelaymS+0xc>

2000057e <FLASH_ROM_BEG>:
FLASH_ROM_BEG():
2000057e:	80040323          	sb	zero,-2042(s0)
20000582:	4715                	li	a4,5
20000584:	80e40323          	sb	a4,-2042(s0)
20000588:	0001                	nop
2000058a:	80a40223          	sb	a0,-2044(s0)
2000058e:	8082                	ret

20000590 <FLASH_ROM_END>:
FLASH_ROM_END():
20000590:	80640783          	lb	a5,-2042(s0)
20000594:	fe07cee3          	bltz	a5,20000590 <FLASH_ROM_END>
20000598:	80040323          	sb	zero,-2042(s0)
2000059c:	8082                	ret

2000059e <FLASH_ROM_IN>:
FLASH_ROM_IN():
2000059e:	80640783          	lb	a5,-2042(s0)
200005a2:	fe07cee3          	bltz	a5,2000059e <FLASH_ROM_IN>
200005a6:	80444503          	lbu	a0,-2044(s0)
200005aa:	8082                	ret

200005ac <FLASH_ROM_OUT>:
FLASH_ROM_OUT():
200005ac:	80640783          	lb	a5,-2042(s0)
200005b0:	fe07cee3          	bltz	a5,200005ac <FLASH_ROM_OUT>
200005b4:	80a40223          	sb	a0,-2044(s0)
200005b8:	8082                	ret

200005ba <FLASH_ROM_ADDR>:
FLASH_ROM_ADDR():
200005ba:	1141                	addi	sp,sp,-16
200005bc:	c426                	sw	s1,8(sp)
200005be:	c24a                	sw	s2,4(sp)
200005c0:	c04e                	sw	s3,0(sp)
200005c2:	c606                	sw	ra,12(sp)
200005c4:	0bf57713          	andi	a4,a0,191
200005c8:	47ad                	li	a5,11
200005ca:	89aa                	mv	s3,a0
200005cc:	892e                	mv	s2,a1
200005ce:	4495                	li	s1,5
200005d0:	00f70663          	beq	a4,a5,200005dc <FLASH_ROM_ADDR+0x22>
200005d4:	4519                	li	a0,6
200005d6:	3765                	jal	2000057e <FLASH_ROM_BEG>
200005d8:	3f65                	jal	20000590 <FLASH_ROM_END>
200005da:	448d                	li	s1,3
200005dc:	854e                	mv	a0,s3
200005de:	3745                	jal	2000057e <FLASH_ROM_BEG>
200005e0:	59fd                	li	s3,-1
200005e2:	14fd                	addi	s1,s1,-1
200005e4:	01349863          	bne	s1,s3,200005f4 <FLASH_ROM_ADDR+0x3a>
200005e8:	40b2                	lw	ra,12(sp)
200005ea:	44a2                	lw	s1,8(sp)
200005ec:	4912                	lw	s2,4(sp)
200005ee:	4982                	lw	s3,0(sp)
200005f0:	0141                	addi	sp,sp,16
200005f2:	8082                	ret
200005f4:	01095513          	srli	a0,s2,0x10
200005f8:	0ff57513          	andi	a0,a0,255
200005fc:	3f45                	jal	200005ac <FLASH_ROM_OUT>
200005fe:	0922                	slli	s2,s2,0x8
20000600:	b7cd                	j	200005e2 <FLASH_ROM_ADDR+0x28>

20000602 <FLASH_ROM_WAIT>:
FLASH_ROM_WAIT():
20000602:	1101                	addi	sp,sp,-32
20000604:	cc26                	sw	s1,24(sp)
20000606:	ce06                	sw	ra,28(sp)
20000608:	000804b7          	lui	s1,0x80
2000060c:	3751                	jal	20000590 <FLASH_ROM_END>
2000060e:	4515                	li	a0,5
20000610:	37bd                	jal	2000057e <FLASH_ROM_BEG>
20000612:	3771                	jal	2000059e <FLASH_ROM_IN>
20000614:	3769                	jal	2000059e <FLASH_ROM_IN>
20000616:	c62a                	sw	a0,12(sp)
20000618:	3fa5                	jal	20000590 <FLASH_ROM_END>
2000061a:	4532                	lw	a0,12(sp)
2000061c:	00157793          	andi	a5,a0,1
20000620:	eb89                	bnez	a5,20000632 <FLASH_ROM_WAIT+0x30>
20000622:	00156513          	ori	a0,a0,1
20000626:	0ff57513          	andi	a0,a0,255
2000062a:	40f2                	lw	ra,28(sp)
2000062c:	44e2                	lw	s1,24(sp)
2000062e:	6105                	addi	sp,sp,32
20000630:	8082                	ret
20000632:	14fd                	addi	s1,s1,-1
20000634:	fce9                	bnez	s1,2000060e <FLASH_ROM_WAIT+0xc>
20000636:	4501                	li	a0,0
20000638:	bfcd                	j	2000062a <FLASH_ROM_WAIT+0x28>

2000063a <FLASH_EEPROM_CMD>:
FLASH_EEPROM_CMD():
2000063a:	7139                	addi	sp,sp,-64
2000063c:	dc26                	sw	s1,56(sp)
2000063e:	da4a                	sw	s2,52(sp)
20000640:	d84e                	sw	s3,48(sp)
20000642:	d652                	sw	s4,44(sp)
20000644:	d456                	sw	s5,40(sp)
20000646:	d25a                	sw	s6,36(sp)
20000648:	d05e                	sw	s7,32(sp)
2000064a:	de06                	sw	ra,60(sp)
2000064c:	ce62                	sw	s8,28(sp)
2000064e:	cc66                	sw	s9,24(sp)
20000650:	e000e7b7          	lui	a5,0xe000e
20000654:	577d                	li	a4,-1
20000656:	0007aa83          	lw	s5,0(a5) # e000e000 <_eusrstack+0xc0006000>
2000065a:	c622                	sw	s0,12(sp)
2000065c:	0047aa03          	lw	s4,4(a5)
20000660:	18e7a023          	sw	a4,384(a5)
20000664:	18e7a223          	sw	a4,388(a5)
20000668:	400017b7          	lui	a5,0x40001
2000066c:	05700713          	li	a4,87
20000670:	04e78023          	sb	a4,64(a5) # 40001040 <_eusrstack+0x1fff9040>
20000674:	fa800713          	li	a4,-88
20000678:	04e78023          	sb	a4,64(a5)
2000067c:	0447c783          	lbu	a5,68(a5)
20000680:	ff750b93          	addi	s7,a0,-9
20000684:	84b6                	mv	s1,a3
20000686:	07e2                	slli	a5,a5,0x18
20000688:	0ffbfb93          	andi	s7,s7,255
2000068c:	4685                	li	a3,1
2000068e:	89aa                	mv	s3,a0
20000690:	8b2e                	mv	s6,a1
20000692:	8932                	mv	s2,a2
20000694:	40002437          	lui	s0,0x40002
20000698:	87e1                	srai	a5,a5,0x18
2000069a:	5701                	li	a4,-32
2000069c:	0176fa63          	bgeu	a3,s7,200006b0 <FLASH_EEPROM_CMD+0x76>
200006a0:	00d50863          	beq	a0,a3,200006b0 <FLASH_EEPROM_CMD+0x76>
200006a4:	4689                	li	a3,2
200006a6:	02000713          	li	a4,32
200006aa:	00d51363          	bne	a0,a3,200006b0 <FLASH_EEPROM_CMD+0x76>
200006ae:	5701                	li	a4,-32
200006b0:	8fd9                	or	a5,a5,a4
200006b2:	0ff7f793          	andi	a5,a5,255
200006b6:	40001cb7          	lui	s9,0x40001
200006ba:	04fc8223          	sb	a5,68(s9) # 40001044 <_eusrstack+0x1fff9044>
200006be:	4711                	li	a4,4
200006c0:	80e40323          	sb	a4,-2042(s0) # 40001806 <_eusrstack+0x1fff9806>
200006c4:	0ff00513          	li	a0,255
200006c8:	3d5d                	jal	2000057e <FLASH_ROM_BEG>
200006ca:	4c09                	li	s8,2
200006cc:	35d1                	jal	20000590 <FLASH_ROM_END>
200006ce:	117c6d63          	bltu	s8,s7,200007e8 <FLASH_EEPROM_CMD+0x1ae>
200006d2:	000705b7          	lui	a1,0x70
200006d6:	95da                	add	a1,a1,s6
200006d8:	00078737          	lui	a4,0x78
200006dc:	5579                	li	a0,-2
200006de:	04e5f263          	bgeu	a1,a4,20000722 <FLASH_EEPROM_CMD+0xe8>
200006e2:	009587b3          	add	a5,a1,s1
200006e6:	02f76e63          	bltu	a4,a5,20000722 <FLASH_EEPROM_CMD+0xe8>
200006ea:	00080b37          	lui	s6,0x80
200006ee:	47a9                	li	a5,10
200006f0:	0165eb33          	or	s6,a1,s6
200006f4:	06f99963          	bne	s3,a5,20000766 <FLASH_EEPROM_CMD+0x12c>
200006f8:	e489                	bnez	s1,20000702 <FLASH_EEPROM_CMD+0xc8>
200006fa:	4481                	li	s1,0
200006fc:	3d51                	jal	20000590 <FLASH_ROM_END>
200006fe:	8526                	mv	a0,s1
20000700:	a00d                	j	20000722 <FLASH_EEPROM_CMD+0xe8>
20000702:	85da                	mv	a1,s6
20000704:	4509                	li	a0,2
20000706:	3d55                	jal	200005ba <FLASH_ROM_ADDR>
20000708:	0905                	addi	s2,s2,1
2000070a:	fff94503          	lbu	a0,-1(s2)
2000070e:	14fd                	addi	s1,s1,-1
20000710:	0b05                	addi	s6,s6,1
20000712:	3d69                	jal	200005ac <FLASH_ROM_OUT>
20000714:	c481                	beqz	s1,2000071c <FLASH_EEPROM_CMD+0xe2>
20000716:	0ffb7793          	andi	a5,s6,255
2000071a:	f7fd                	bnez	a5,20000708 <FLASH_EEPROM_CMD+0xce>
2000071c:	35dd                	jal	20000602 <FLASH_ROM_WAIT>
2000071e:	fd69                	bnez	a0,200006f8 <FLASH_EEPROM_CMD+0xbe>
20000720:	557d                	li	a0,-1
20000722:	400017b7          	lui	a5,0x40001
20000726:	05700713          	li	a4,87
2000072a:	04e78023          	sb	a4,64(a5) # 40001040 <_eusrstack+0x1fff9040>
2000072e:	fa800713          	li	a4,-88
20000732:	04e78023          	sb	a4,64(a5)
20000736:	0447c703          	lbu	a4,68(a5)
2000073a:	8b41                	andi	a4,a4,16
2000073c:	04e78223          	sb	a4,68(a5)
20000740:	50f2                	lw	ra,60(sp)
20000742:	e000e7b7          	lui	a5,0xe000e
20000746:	1157a023          	sw	s5,256(a5) # e000e100 <_eusrstack+0xc0006100>
2000074a:	1147a223          	sw	s4,260(a5)
2000074e:	54e2                	lw	s1,56(sp)
20000750:	4432                	lw	s0,12(sp)
20000752:	5952                	lw	s2,52(sp)
20000754:	59c2                	lw	s3,48(sp)
20000756:	5a32                	lw	s4,44(sp)
20000758:	5aa2                	lw	s5,40(sp)
2000075a:	5b12                	lw	s6,36(sp)
2000075c:	5b82                	lw	s7,32(sp)
2000075e:	4c72                	lw	s8,28(sp)
20000760:	4ce2                	lw	s9,24(sp)
20000762:	6121                	addi	sp,sp,64
20000764:	8082                	ret
20000766:	47a5                	li	a5,9
20000768:	06f99563          	bne	s3,a5,200007d2 <FLASH_EEPROM_CMD+0x198>
2000076c:	6985                	lui	s3,0x1
2000076e:	0ff00913          	li	s2,255
20000772:	009906b3          	add	a3,s2,s1
20000776:	012b74b3          	and	s1,s6,s2
2000077a:	94b6                	add	s1,s1,a3
2000077c:	fff94913          	not	s2,s2
20000780:	009974b3          	and	s1,s2,s1
20000784:	6b85                	lui	s7,0x1
20000786:	01697933          	and	s2,s2,s6
2000078a:	6b41                	lui	s6,0x10
2000078c:	fff98793          	addi	a5,s3,-1 # fff <main+0x3b>
20000790:	0127f7b3          	and	a5,a5,s2
20000794:	e399                	bnez	a5,2000079a <FLASH_EEPROM_CMD+0x160>
20000796:	0134fc63          	bgeu	s1,s3,200007ae <FLASH_EEPROM_CMD+0x174>
2000079a:	0049d993          	srli	s3,s3,0x4
2000079e:	47c1                	li	a5,16
200007a0:	ff37e6e3          	bltu	a5,s3,2000078c <FLASH_EEPROM_CMD+0x152>
200007a4:	bf99                	j	200006fa <FLASH_EEPROM_CMD+0xc0>
200007a6:	6905                	lui	s2,0x1
200007a8:	69c1                	lui	s3,0x10
200007aa:	197d                	addi	s2,s2,-1
200007ac:	b7d9                	j	20000772 <FLASH_EEPROM_CMD+0x138>
200007ae:	0d800513          	li	a0,216
200007b2:	01698863          	beq	s3,s6,200007c2 <FLASH_EEPROM_CMD+0x188>
200007b6:	02000513          	li	a0,32
200007ba:	01798463          	beq	s3,s7,200007c2 <FLASH_EEPROM_CMD+0x188>
200007be:	08100513          	li	a0,129
200007c2:	85ca                	mv	a1,s2
200007c4:	3bdd                	jal	200005ba <FLASH_ROM_ADDR>
200007c6:	3d35                	jal	20000602 <FLASH_ROM_WAIT>
200007c8:	dd21                	beqz	a0,20000720 <FLASH_EEPROM_CMD+0xe6>
200007ca:	994e                	add	s2,s2,s3
200007cc:	413484b3          	sub	s1,s1,s3
200007d0:	b7d9                	j	20000796 <FLASH_EEPROM_CMD+0x15c>
200007d2:	85da                	mv	a1,s6
200007d4:	452d                	li	a0,11
200007d6:	33d5                	jal	200005ba <FLASH_ROM_ADDR>
200007d8:	94ca                	add	s1,s1,s2
200007da:	f29900e3          	beq	s2,s1,200006fa <FLASH_EEPROM_CMD+0xc0>
200007de:	0905                	addi	s2,s2,1
200007e0:	3b7d                	jal	2000059e <FLASH_ROM_IN>
200007e2:	fea90fa3          	sb	a0,-1(s2) # fff <main+0x3b>
200007e6:	bfd5                	j	200007da <FLASH_EEPROM_CMD+0x1a0>
200007e8:	fff98793          	addi	a5,s3,-1 # ffff <_data_lma+0xed3f>
200007ec:	0ff7f793          	andi	a5,a5,255
200007f0:	0cfc6163          	bltu	s8,a5,200008b2 <.loop402+0x7a>
200007f4:	041cc783          	lbu	a5,65(s9)
200007f8:	08300713          	li	a4,131
200007fc:	04f71f63          	bne	a4,a5,2000085a <.loop402+0x22>
20000800:	00080737          	lui	a4,0x80
20000804:	04eb6b63          	bltu	s6,a4,2000085a <.loop402+0x22>
20000808:	009b07b3          	add	a5,s6,s1
2000080c:	001006b7          	lui	a3,0x100
20000810:	04d7f563          	bgeu	a5,a3,2000085a <.loop402+0x22>
20000814:	00eb4b33          	xor	s6,s6,a4
20000818:	4789                	li	a5,2
2000081a:	06f99363          	bne	s3,a5,20000880 <.loop402+0x48>
2000081e:	8089                	srli	s1,s1,0x2
20000820:	49d5                	li	s3,21
20000822:	ec048ce3          	beqz	s1,200006fa <FLASH_EEPROM_CMD+0xc0>
20000826:	85da                	mv	a1,s6
20000828:	4509                	li	a0,2
2000082a:	3b41                	jal	200005ba <FLASH_ROM_ADDR>
2000082c:	0911                	addi	s2,s2,4
2000082e:	ffc92703          	lw	a4,-4(s2)
20000832:	4791                	li	a5,4
20000834:	80e42023          	sw	a4,-2048(s0)

20000838 <.loop402>:
20000838:	80640703          	lb	a4,-2042(s0)
2000083c:	fe074ee3          	bltz	a4,20000838 <.loop402>
20000840:	81340323          	sb	s3,-2042(s0)
20000844:	17fd                	addi	a5,a5,-1
20000846:	fbed                	bnez	a5,20000838 <.loop402>
20000848:	14fd                	addi	s1,s1,-1
2000084a:	0b11                	addi	s6,s6,4
2000084c:	c481                	beqz	s1,20000854 <.loop402+0x1c>
2000084e:	0ffb7793          	andi	a5,s6,255
20000852:	ffe9                	bnez	a5,2000082c <FLASH_EEPROM_CMD+0x1f2>
20000854:	337d                	jal	20000602 <FLASH_ROM_WAIT>
20000856:	f571                	bnez	a0,20000822 <FLASH_EEPROM_CMD+0x1e8>
20000858:	b5e1                	j	20000720 <FLASH_EEPROM_CMD+0xe6>
2000085a:	400017b7          	lui	a5,0x40001
2000085e:	0457c703          	lbu	a4,69(a5) # 40001045 <_eusrstack+0x1fff9045>
20000862:	000807b7          	lui	a5,0x80
20000866:	02077713          	andi	a4,a4,32
2000086a:	e319                	bnez	a4,20000870 <.loop402+0x38>
2000086c:	000787b7          	lui	a5,0x78
20000870:	5579                	li	a0,-2
20000872:	eafb78e3          	bgeu	s6,a5,20000722 <FLASH_EEPROM_CMD+0xe8>
20000876:	009b0733          	add	a4,s6,s1
2000087a:	f8e7ffe3          	bgeu	a5,a4,20000818 <FLASH_EEPROM_CMD+0x1de>
2000087e:	b555                	j	20000722 <FLASH_EEPROM_CMD+0xe8>
20000880:	4785                	li	a5,1
20000882:	f2f982e3          	beq	s3,a5,200007a6 <FLASH_EEPROM_CMD+0x16c>
20000886:	85da                	mv	a1,s6
20000888:	452d                	li	a0,11
2000088a:	3b05                	jal	200005ba <FLASH_ROM_ADDR>
2000088c:	fff48993          	addi	s3,s1,-1 # 7ffff <_data_lma+0x7ed3f>
20000890:	e60485e3          	beqz	s1,200006fa <FLASH_EEPROM_CMD+0xc0>
20000894:	3329                	jal	2000059e <FLASH_ROM_IN>
20000896:	0039f793          	andi	a5,s3,3
2000089a:	eb91                	bnez	a5,200008ae <.loop402+0x76>
2000089c:	80042683          	lw	a3,-2048(s0)
200008a0:	00092703          	lw	a4,0(s2)
200008a4:	00490793          	addi	a5,s2,4
200008a8:	e4e69ae3          	bne	a3,a4,200006fc <FLASH_EEPROM_CMD+0xc2>
200008ac:	893e                	mv	s2,a5
200008ae:	84ce                	mv	s1,s3
200008b0:	bff1                	j	2000088c <.loop402+0x54>
200008b2:	47b5                	li	a5,13
200008b4:	00f99663          	bne	s3,a5,200008c0 <.loop402+0x88>
200008b8:	0b900513          	li	a0,185
200008bc:	31c9                	jal	2000057e <FLASH_ROM_BEG>
200008be:	bd35                	j	200006fa <FLASH_EEPROM_CMD+0xc0>
200008c0:	47b1                	li	a5,12
200008c2:	0ab00513          	li	a0,171
200008c6:	fef98be3          	beq	s3,a5,200008bc <.loop402+0x84>
200008ca:	4799                	li	a5,6
200008cc:	04f99163          	bne	s3,a5,2000090e <.loop402+0xd6>
200008d0:	000805b7          	lui	a1,0x80
200008d4:	00bb65b3          	or	a1,s6,a1
200008d8:	452d                	li	a0,11
200008da:	31c5                	jal	200005ba <FLASH_ROM_ADDR>
200008dc:	4481                	li	s1,0
200008de:	4b8d                	li	s7,3
200008e0:	49a1                	li	s3,8
200008e2:	3975                	jal	2000059e <FLASH_ROM_IN>
200008e4:	01749663          	bne	s1,s7,200008f0 <.loop402+0xb8>
200008e8:	80042783          	lw	a5,-2048(s0)
200008ec:	00f92023          	sw	a5,0(s2)
200008f0:	0485                	addi	s1,s1,1
200008f2:	ff3498e3          	bne	s1,s3,200008e2 <.loop402+0xaa>
200008f6:	80042783          	lw	a5,-2048(s0)
200008fa:	012b1713          	slli	a4,s6,0x12
200008fe:	00075563          	bgez	a4,20000908 <.loop402+0xd0>
20000902:	00f91223          	sh	a5,4(s2)
20000906:	bbd5                	j	200006fa <FLASH_EEPROM_CMD+0xc0>
20000908:	00f92223          	sw	a5,4(s2)
2000090c:	b3fd                	j	200006fa <FLASH_EEPROM_CMD+0xc0>
2000090e:	479d                	li	a5,7
20000910:	02f99963          	bne	s3,a5,20000942 <.loop402+0x10a>
20000914:	4581                	li	a1,0
20000916:	04b00513          	li	a0,75
2000091a:	3145                	jal	200005ba <FLASH_ROM_ADDR>
2000091c:	44bd                	li	s1,15
2000091e:	00092023          	sw	zero,0(s2)
20000922:	00092223          	sw	zero,4(s2)
20000926:	59fd                	li	s3,-1
20000928:	399d                	jal	2000059e <FLASH_ROM_IN>
2000092a:	0074f793          	andi	a5,s1,7
2000092e:	97ca                	add	a5,a5,s2
20000930:	0007c703          	lbu	a4,0(a5) # 78000 <_data_lma+0x76d40>
20000934:	14fd                	addi	s1,s1,-1
20000936:	8d39                	xor	a0,a0,a4
20000938:	00a78023          	sb	a0,0(a5)
2000093c:	ff3496e3          	bne	s1,s3,20000928 <.loop402+0xf0>
20000940:	bb6d                	j	200006fa <FLASH_EEPROM_CMD+0xc0>
20000942:	47a1                	li	a5,8
20000944:	04f99263          	bne	s3,a5,20000988 <.loop402+0x150>
20000948:	396d                	jal	20000602 <FLASH_ROM_WAIT>
2000094a:	4481                	li	s1,0
2000094c:	000b0d63          	beqz	s6,20000966 <.loop402+0x12e>
20000950:	478d                	li	a5,3
20000952:	03c00493          	li	s1,60
20000956:	00fb0863          	beq	s6,a5,20000966 <.loop402+0x12e>
2000095a:	05000493          	li	s1,80
2000095e:	018b0463          	beq	s6,s8,20000966 <.loop402+0x12e>
20000962:	04400493          	li	s1,68
20000966:	07c57513          	andi	a0,a0,124
2000096a:	d89508e3          	beq	a0,s1,200006fa <FLASH_EEPROM_CMD+0xc0>
2000096e:	4519                	li	a0,6
20000970:	3139                	jal	2000057e <FLASH_ROM_BEG>
20000972:	3939                	jal	20000590 <FLASH_ROM_END>
20000974:	4505                	li	a0,1
20000976:	3121                	jal	2000057e <FLASH_ROM_BEG>
20000978:	8526                	mv	a0,s1
2000097a:	390d                	jal	200005ac <FLASH_ROM_OUT>
2000097c:	4509                	li	a0,2
2000097e:	313d                	jal	200005ac <FLASH_ROM_OUT>
20000980:	3149                	jal	20000602 <FLASH_ROM_WAIT>
20000982:	d6051ce3          	bnez	a0,200006fa <FLASH_EEPROM_CMD+0xc0>
20000986:	bb69                	j	20000720 <FLASH_EEPROM_CMD+0xe6>
20000988:	4791                	li	a5,4
2000098a:	00f99963          	bne	s3,a5,2000099c <.loop402+0x164>
2000098e:	06600513          	li	a0,102
20000992:	36f5                	jal	2000057e <FLASH_ROM_BEG>
20000994:	3ef5                	jal	20000590 <FLASH_ROM_END>
20000996:	09900513          	li	a0,153
2000099a:	b70d                	j	200008bc <.loop402+0x84>
2000099c:	d4098fe3          	beqz	s3,200006fa <FLASH_EEPROM_CMD+0xc0>
200009a0:	54f1                	li	s1,-4
200009a2:	bba9                	j	200006fc <FLASH_EEPROM_CMD+0xc2>

Disassembly of section .text:

000009a8 <handle_reset>:
handle_reset():
d:\Electromic\business_card\obj/../Startup/startup_CH583.S:129
	.weak	handle_reset
	.align	1
handle_reset:
.option push 
.option	norelax 
	la gp, __global_pointer$
     9a8:	20001197          	auipc	gp,0x20001
     9ac:	80018193          	addi	gp,gp,-2048 # 200011a8 <__global_pointer$>
d:\Electromic\business_card\obj/../Startup/startup_CH583.S:132
.option	pop 
1:
	la sp, _eusrstack 
     9b0:	20007117          	auipc	sp,0x20007
     9b4:	65010113          	addi	sp,sp,1616 # 20008000 <_eusrstack>
d:\Electromic\business_card\obj/../Startup/startup_CH583.S:136

/* Load highcode code  section from flash to RAM */
2:
    la a0, _highcode_lma
     9b8:	00400513          	li	a0,4
d:\Electromic\business_card\obj/../Startup/startup_CH583.S:137
    la a1, _highcode_vma_start
     9bc:	1ffff597          	auipc	a1,0x1ffff
     9c0:	64458593          	addi	a1,a1,1604 # 20000000 <_highcode_vma_start>
d:\Electromic\business_card\obj/../Startup/startup_CH583.S:138
    la a2, _highcode_vma_end
     9c4:	20000617          	auipc	a2,0x20000
     9c8:	fe060613          	addi	a2,a2,-32 # 200009a4 <_highcode_vma_end>
d:\Electromic\business_card\obj/../Startup/startup_CH583.S:139
    bgeu a1, a2, 2f
     9cc:	00c5fa63          	bgeu	a1,a2,9e0 <handle_reset+0x38>
d:\Electromic\business_card\obj/../Startup/startup_CH583.S:141
1:
    lw t0, (a0)
     9d0:	00052283          	lw	t0,0(a0)
d:\Electromic\business_card\obj/../Startup/startup_CH583.S:142
    sw t0, (a1)
     9d4:	0055a023          	sw	t0,0(a1)
d:\Electromic\business_card\obj/../Startup/startup_CH583.S:143
    addi a0, a0, 4
     9d8:	0511                	addi	a0,a0,4
d:\Electromic\business_card\obj/../Startup/startup_CH583.S:144
    addi a1, a1, 4
     9da:	0591                	addi	a1,a1,4
d:\Electromic\business_card\obj/../Startup/startup_CH583.S:145
    bltu a1, a2, 1b
     9dc:	fec5eae3          	bltu	a1,a2,9d0 <handle_reset+0x28>
d:\Electromic\business_card\obj/../Startup/startup_CH583.S:149

/* Load data section from flash to RAM */
2:
	la a0, _data_lma
     9e0:	00001517          	auipc	a0,0x1
     9e4:	8e050513          	addi	a0,a0,-1824 # 12c0 <_data_lma>
d:\Electromic\business_card\obj/../Startup/startup_CH583.S:150
	la a1, _data_vma
     9e8:	20000597          	auipc	a1,0x20000
     9ec:	fbc58593          	addi	a1,a1,-68 # 200009a4 <_highcode_vma_end>
d:\Electromic\business_card\obj/../Startup/startup_CH583.S:151
	la a2, _edata
     9f0:	20000617          	auipc	a2,0x20000
     9f4:	fb860613          	addi	a2,a2,-72 # 200009a8 <_edata>
d:\Electromic\business_card\obj/../Startup/startup_CH583.S:152
	bgeu a1, a2, 2f
     9f8:	00c5fa63          	bgeu	a1,a2,a0c <handle_reset+0x64>
d:\Electromic\business_card\obj/../Startup/startup_CH583.S:154
1:
	lw t0, (a0)
     9fc:	00052283          	lw	t0,0(a0)
d:\Electromic\business_card\obj/../Startup/startup_CH583.S:155
	sw t0, (a1)
     a00:	0055a023          	sw	t0,0(a1)
d:\Electromic\business_card\obj/../Startup/startup_CH583.S:156
	addi a0, a0, 4
     a04:	0511                	addi	a0,a0,4
d:\Electromic\business_card\obj/../Startup/startup_CH583.S:157
	addi a1, a1, 4
     a06:	0591                	addi	a1,a1,4
d:\Electromic\business_card\obj/../Startup/startup_CH583.S:158
	bltu a1, a2, 1b
     a08:	fec5eae3          	bltu	a1,a2,9fc <handle_reset+0x54>
d:\Electromic\business_card\obj/../Startup/startup_CH583.S:161
2:
	/* clear bss section */
	la a0, _sbss
     a0c:	20000517          	auipc	a0,0x20000
     a10:	f9c50513          	addi	a0,a0,-100 # 200009a8 <_edata>
d:\Electromic\business_card\obj/../Startup/startup_CH583.S:162
	la a1, _ebss
     a14:	a2818593          	addi	a1,gp,-1496 # 20000bd0 <_ebss>
d:\Electromic\business_card\obj/../Startup/startup_CH583.S:163
	bgeu a0, a1, 2f
     a18:	00b57763          	bgeu	a0,a1,a26 <handle_reset+0x7e>
d:\Electromic\business_card\obj/../Startup/startup_CH583.S:165
1:
	sw zero, (a0)
     a1c:	00052023          	sw	zero,0(a0)
d:\Electromic\business_card\obj/../Startup/startup_CH583.S:166
	addi a0, a0, 4
     a20:	0511                	addi	a0,a0,4
d:\Electromic\business_card\obj/../Startup/startup_CH583.S:167
	bltu a0, a1, 1b
     a22:	feb56de3          	bltu	a0,a1,a1c <handle_reset+0x74>
d:\Electromic\business_card\obj/../Startup/startup_CH583.S:170
2:
	/* ء÷ث®دك؟طضئخ» & ¶¯ج¬ش¤²â؟طضئخ» */
	li t0, 0x1f
     a26:	42fd                	li	t0,31
d:\Electromic\business_card\obj/../Startup/startup_CH583.S:171
	csrw 0xbc0, t0
     a28:	bc029073          	csrw	0xbc0,t0
d:\Electromic\business_card\obj/../Startup/startup_CH583.S:173
	/* ´ٍ؟ھا¶ج×ضذ¶د،¢س²¼‏ر¹ص»¹¦ؤـ */
	li t0, 0x3
     a2c:	428d                	li	t0,3
d:\Electromic\business_card\obj/../Startup/startup_CH583.S:174
	csrw 0x804, t0
     a2e:	80429073          	csrw	0x804,t0
d:\Electromic\business_card\obj/../Startup/startup_CH583.S:176
	
    li t0, 0x88
     a32:	08800293          	li	t0,136
d:\Electromic\business_card\obj/../Startup/startup_CH583.S:177
    csrw mstatus, t0
     a36:	30029073          	csrw	mstatus,t0
d:\Electromic\business_card\obj/../Startup/startup_CH583.S:178
	la t0, _vector_base
     a3a:	1ffff297          	auipc	t0,0x1ffff
     a3e:	5c628293          	addi	t0,t0,1478 # 20000000 <_highcode_vma_start>
d:\Electromic\business_card\obj/../Startup/startup_CH583.S:181

	/* إنضأدٍء؟±يؤ£ت½خھ¾ّ¶شµطض·ؤ£ت½ */
    ori t0, t0, 3
     a42:	0032e293          	ori	t0,t0,3
d:\Electromic\business_card\obj/../Startup/startup_CH583.S:182
	csrw mtvec, t0
     a46:	30529073          	csrw	mtvec,t0
d:\Electromic\business_card\obj/../Startup/startup_CH583.S:184

    lui a4,0x40001
     a4a:	40001737          	lui	a4,0x40001
d:\Electromic\business_card\obj/../Startup/startup_CH583.S:185
    li  a5,87
     a4e:	05700793          	li	a5,87
d:\Electromic\business_card\obj/../Startup/startup_CH583.S:186
    sb  a5,64(a4)
     a52:	04f70023          	sb	a5,64(a4) # 40001040 <_eusrstack+0x1fff9040>
d:\Electromic\business_card\obj/../Startup/startup_CH583.S:187
    li  a5,-88
     a56:	fa800793          	li	a5,-88
d:\Electromic\business_card\obj/../Startup/startup_CH583.S:188
    sb  a5,64(a4)
     a5a:	04f70023          	sb	a5,64(a4)
d:\Electromic\business_card\obj/../Startup/startup_CH583.S:189
    fence.i
     a5e:	0000100f          	fence.i
d:\Electromic\business_card\obj/../Startup/startup_CH583.S:190
    lw  a5,72(a4)
     a62:	473c                	lw	a5,72(a4)
d:\Electromic\business_card\obj/../Startup/startup_CH583.S:191
    lui a3,0xfa000
     a64:	fa0006b7          	lui	a3,0xfa000
d:\Electromic\business_card\obj/../Startup/startup_CH583.S:192
    addi  a3,a3,-8
     a68:	16e1                	addi	a3,a3,-8
d:\Electromic\business_card\obj/../Startup/startup_CH583.S:193
    and a5,a5,a3
     a6a:	8ff5                	and	a5,a5,a3
d:\Electromic\business_card\obj/../Startup/startup_CH583.S:194
    lui a3,0x6000
     a6c:	060006b7          	lui	a3,0x6000
d:\Electromic\business_card\obj/../Startup/startup_CH583.S:195
    addi a3,a3,5
     a70:	0695                	addi	a3,a3,5
d:\Electromic\business_card\obj/../Startup/startup_CH583.S:196
    or  a5,a5,a3
     a72:	8fd5                	or	a5,a5,a3
d:\Electromic\business_card\obj/../Startup/startup_CH583.S:197
    sw  a5,72(a4)
     a74:	c73c                	sw	a5,72(a4)
d:\Electromic\business_card\obj/../Startup/startup_CH583.S:199

	la t0, main
     a76:	00000297          	auipc	t0,0x0
     a7a:	54e28293          	addi	t0,t0,1358 # fc4 <main>
d:\Electromic\business_card\obj/../Startup/startup_CH583.S:200
	csrw mepc, t0
     a7e:	34129073          	csrw	mepc,t0
d:\Electromic\business_card\obj/../Startup/startup_CH583.S:203
	
	
	mret
     a82:	30200073          	mret

00000a86 <TKey_Convert.constprop.0>:
TKey_Convert():
d:\Electromic\business_card\obj/../src/Main.c:118
{
    R8_ADC_CFG = RB_ADC_POWER_ON | RB_ADC_BUF_EN | (1<<4);
    R8_TKEY_CFG |= RB_TKEY_PWR_ON;
}

static uint16_t TKey_Convert(uint8_t ch, uint8_t charg, uint8_t disch)
     a86:	1141                	addi	sp,sp,-16
     a88:	c422                	sw	s0,8(sp)
     a8a:	c606                	sw	ra,12(sp)
d:\Electromic\business_card\obj/../src/Main.c:120
{
    R8_ADC_CHANNEL = ch;
     a8c:	40001437          	lui	s0,0x40001
     a90:	04a40c23          	sb	a0,88(s0) # 40001058 <_eusrstack+0x1fff9058>
d:\Electromic\business_card\obj/../src/Main.c:121
    DelayUs(2);
     a94:	4509                	li	a0,2
     a96:	20000097          	auipc	ra,0x20000
     a9a:	ab2080e7          	jalr	-1358(ra) # 20000548 <mDelayuS>
d:\Electromic\business_card\obj/../src/Main.c:122
    R8_TKEY_COUNT = (disch<<5) | (charg&0x1f);
     a9e:	02800793          	li	a5,40
     aa2:	04f40a23          	sb	a5,84(s0)
d:\Electromic\business_card\obj/../src/Main.c:123
    R8_TKEY_CONVERT = RB_TKEY_START;
     aa6:	4785                	li	a5,1
     aa8:	04f40b23          	sb	a5,86(s0)
d:\Electromic\business_card\obj/../src/Main.c:124
    while(R8_TKEY_CONVERT & RB_TKEY_START);
     aac:	40001737          	lui	a4,0x40001
     ab0:	05674783          	lbu	a5,86(a4) # 40001056 <_eusrstack+0x1fff9056>
     ab4:	8b85                	andi	a5,a5,1
     ab6:	ffed                	bnez	a5,ab0 <TKey_Convert.constprop.0+0x2a>
d:\Electromic\business_card\obj/../src/Main.c:125
    return (R16_ADC_DATA & RB_ADC_DATA);
     ab8:	05c75503          	lhu	a0,92(a4)
d:\Electromic\business_card\obj/../src/Main.c:126
}
     abc:	40b2                	lw	ra,12(sp)
     abe:	4422                	lw	s0,8(sp)
d:\Electromic\business_card\obj/../src/Main.c:125
    return (R16_ADC_DATA & RB_ADC_DATA);
     ac0:	0552                	slli	a0,a0,0x14
d:\Electromic\business_card\obj/../src/Main.c:126
}
     ac2:	8151                	srli	a0,a0,0x14
     ac4:	0141                	addi	sp,sp,16
     ac6:	8082                	ret

00000ac8 <R8_Init>:
R8_Init():
d:\Electromic\business_card\obj/../src/Main.c:138
volatile uint16_t r8_tmr_cnt=0;
volatile uint8_t  r8_meas_done=0;

/* هˆ‌ه§‹هŒ– R8 و£€وµ‹ه¼•è„ڑ */
void R8_Init(void)
{
     ac8:	1141                	addi	sp,sp,-16
d:\Electromic\business_card\obj/../src/Main.c:140
    /* PB8 وژ¨وŒ½è¾“ه‡؛, هˆ‌ه§‹ن½ژ */
    GPIOB_ModeCfg(R8_A_PIN, GPIO_ModeOut_PP_5mA);
     aca:	458d                	li	a1,3
     acc:	10000513          	li	a0,256
d:\Electromic\business_card\obj/../src/Main.c:138
{
     ad0:	c606                	sw	ra,12(sp)
d:\Electromic\business_card\obj/../src/Main.c:140
    GPIOB_ModeCfg(R8_A_PIN, GPIO_ModeOut_PP_5mA);
     ad2:	2d09                	jal	10e4 <GPIOB_ModeCfg>
d:\Electromic\business_card\obj/../src/Main.c:141
    GPIOB_ResetBits(R8_A_PIN);
     ad4:	40001737          	lui	a4,0x40001
     ad8:	0cc72783          	lw	a5,204(a4) # 400010cc <_eusrstack+0x1fff90cc>
d:\Electromic\business_card\obj/../src/Main.c:144
    /* PB9 وµ®ç©؛è¾“ه…¥ (è¯»ç”µه¹³) */
    GPIOB_ModeCfg(R8_B_PIN, GPIO_ModeIN_Floating);
}
     adc:	40b2                	lw	ra,12(sp)
d:\Electromic\business_card\obj/../src/Main.c:143
    GPIOB_ModeCfg(R8_B_PIN, GPIO_ModeIN_Floating);
     ade:	4581                	li	a1,0
d:\Electromic\business_card\obj/../src/Main.c:141
    GPIOB_ResetBits(R8_A_PIN);
     ae0:	1007e793          	ori	a5,a5,256
     ae4:	0cf72623          	sw	a5,204(a4)
d:\Electromic\business_card\obj/../src/Main.c:143
    GPIOB_ModeCfg(R8_B_PIN, GPIO_ModeIN_Floating);
     ae8:	20000513          	li	a0,512
d:\Electromic\business_card\obj/../src/Main.c:144
}
     aec:	0141                	addi	sp,sp,16
d:\Electromic\business_card\obj/../src/Main.c:143
    GPIOB_ModeCfg(R8_B_PIN, GPIO_ModeIN_Floating);
     aee:	abdd                	j	10e4 <GPIOB_ModeCfg>

00000af0 <R8_Detect>:
R8_Detect():
d:\Electromic\business_card\obj/../src/Main.c:154
{
    uint16_t t;
    uint8_t ret=0;

    /* PB8 è¾“ه‡؛é«ک, ه¼€ه§‹ه……ç”µ */
    GPIOB_SetBits(R8_A_PIN);
     af0:	40001737          	lui	a4,0x40001
     af4:	0c872783          	lw	a5,200(a4) # 400010c8 <_eusrstack+0x1fff90c8>
d:\Electromic\business_card\obj/../src/Main.c:149
{
     af8:	1101                	addi	sp,sp,-32
     afa:	ce06                	sw	ra,28(sp)
d:\Electromic\business_card\obj/../src/Main.c:154
    GPIOB_SetBits(R8_A_PIN);
     afc:	1007e793          	ori	a5,a5,256
     b00:	0cf72423          	sw	a5,200(a4)
d:\Electromic\business_card\obj/../src/Main.c:159

    /* ç­‰ه¾… PB9 ç”µه¹³هچ‡هˆ°é«کç”µه¹³, è®،و—¶ */
    /* وœھè§¦و‘¸و—¶: ç”µه®¹ه°ڈ, ه……ç”µه؟«, ه¾ˆه؟«هچ‡هˆ°é«کç”µه¹³ */
    /* è§¦و‘¸و—¶: ن؛؛ن½“ç”µه®¹ه¹¶èپ”, ç”µه®¹ه¤§, ه……ç”µو…¢ */
    GPIOB_ModeCfg(R8_B_PIN, GPIO_ModeIN_Floating);
     b04:	20000513          	li	a0,512
     b08:	4581                	li	a1,0
     b0a:	2be9                	jal	10e4 <GPIOB_ModeCfg>
d:\Electromic\business_card\obj/../src/Main.c:163

    /* ç”¨ç®€هچ•è®،و•°و³•وµ‹و—¶é—´ */
    /* TIMEOUT éک²هچ،و­» */
    for(t=0; t<5000; t++){
     b0c:	6785                	lui	a5,0x1
     b0e:	4501                	li	a0,0
d:\Electromic\business_card\obj/../src/Main.c:164
        if(GPIOB_ReadPortPin(R8_B_PIN)){
     b10:	400016b7          	lui	a3,0x40001
d:\Electromic\business_card\obj/../src/Main.c:163
    for(t=0; t<5000; t++){
     b14:	38878793          	addi	a5,a5,904 # 1388 <_data_lma+0xc8>
d:\Electromic\business_card\obj/../src/Main.c:164
        if(GPIOB_ReadPortPin(R8_B_PIN)){
     b18:	0c46a703          	lw	a4,196(a3) # 400010c4 <_eusrstack+0x1fff90c4>
     b1c:	20077713          	andi	a4,a4,512
     b20:	eb15                	bnez	a4,b54 <R8_Detect+0x64>
d:\Electromic\business_card\obj/../src/Main.c:163 (discriminator 2)
    for(t=0; t<5000; t++){
     b22:	0505                	addi	a0,a0,1
     b24:	0542                	slli	a0,a0,0x10
     b26:	8141                	srli	a0,a0,0x10
     b28:	fef518e3          	bne	a0,a5,b18 <R8_Detect+0x28>
d:\Electromic\business_card\obj/../src/Main.c:171
        }
    }

    /* è§¦و‘¸و—¶ه……ç”µو—¶é—´é•؟, t ه€¼ه¤§ */
    if(t > R8_TOUCH_THRESH){
        ret = 1;
     b2c:	4505                	li	a0,1
d:\Electromic\business_card\obj/../src/Main.c:175
    }

    /* PB8 و‹‰ن½ژو”¾ç”µ, ه‡†ه¤‡ن¸‹و¬، */
    GPIOB_ResetBits(R8_A_PIN);
     b2e:	40001737          	lui	a4,0x40001
     b32:	0cc72783          	lw	a5,204(a4) # 400010cc <_eusrstack+0x1fff90cc>
     b36:	1007e793          	ori	a5,a5,256
     b3a:	0cf72623          	sw	a5,204(a4)
d:\Electromic\business_card\obj/../src/Main.c:179
    /* ç­‰ه¾…و”¾ç”µه®Œوˆگ */
    {
        volatile uint16_t d;
        for(d=0; d<1000; d++);
     b3e:	00011723          	sh	zero,14(sp)
     b42:	3e700713          	li	a4,999
d:\Electromic\business_card\obj/../src/Main.c:179 (discriminator 1)
     b46:	00e15783          	lhu	a5,14(sp)
     b4a:	00f77a63          	bgeu	a4,a5,b5e <R8_Detect+0x6e>
d:\Electromic\business_card\obj/../src/Main.c:183
    }

    return ret;
}
     b4e:	40f2                	lw	ra,28(sp)
     b50:	6105                	addi	sp,sp,32
     b52:	8082                	ret
d:\Electromic\business_card\obj/../src/Main.c:170
    if(t > R8_TOUCH_THRESH){
     b54:	01553513          	sltiu	a0,a0,21
d:\Electromic\business_card\obj/../src/Main.c:151
    uint8_t ret=0;
     b58:	00154513          	xori	a0,a0,1
     b5c:	bfc9                	j	b2e <R8_Detect+0x3e>
d:\Electromic\business_card\obj/../src/Main.c:179 (discriminator 3)
        for(d=0; d<1000; d++);
     b5e:	00e15783          	lhu	a5,14(sp)
     b62:	0785                	addi	a5,a5,1
     b64:	07c2                	slli	a5,a5,0x10
     b66:	83c1                	srli	a5,a5,0x10
     b68:	00f11723          	sh	a5,14(sp)
     b6c:	bfe9                	j	b46 <R8_Detect+0x56>

00000b6e <TKey_Init>:
TKey_Init():
d:\Electromic\business_card\obj/../src/Main.c:187

/* ======================== هˆ‌ه§‹هŒ– ======================== */
void TKey_Init(void)
{
     b6e:	7179                	addi	sp,sp,-48
d:\Electromic\business_card\obj/../src/Main.c:190
    uint8_t r,c;

    GPIOAGPPCfg(ENABLE, RB_PIN_ADC0_IE | RB_PIN_ADC1_IE);
     b70:	60000593          	li	a1,1536
     b74:	4505                	li	a0,1
d:\Electromic\business_card\obj/../src/Main.c:187
{
     b76:	d606                	sw	ra,44(sp)
     b78:	ce4e                	sw	s3,28(sp)
     b7a:	cc52                	sw	s4,24(sp)
     b7c:	ca56                	sw	s5,20(sp)
     b7e:	c85a                	sw	s6,16(sp)
     b80:	c65e                	sw	s7,12(sp)
     b82:	d422                	sw	s0,40(sp)
     b84:	d226                	sw	s1,36(sp)
     b86:	d04a                	sw	s2,32(sp)
d:\Electromic\business_card\obj/../src/Main.c:190
    GPIOAGPPCfg(ENABLE, RB_PIN_ADC0_IE | RB_PIN_ADC1_IE);
     b88:	2509                	jal	118a <GPIOAGPPCfg>
d:\Electromic\business_card\obj/../src/Main.c:191
    GPIOAGPPCfg(ENABLE, RB_PIN_ADC2_3_IE | RB_PIN_ADC4_5_IE);
     b8a:	65b1                	lui	a1,0xc
     b8c:	4505                	li	a0,1
     b8e:	2bf5                	jal	118a <GPIOAGPPCfg>
d:\Electromic\business_card\obj/../src/Main.c:192
    GPIOAGPPCfg(ENABLE, RB_PIN_ADC6_7_IE);
     b90:	4589                	li	a1,2
     b92:	4505                	li	a0,1
     b94:	2bdd                	jal	118a <GPIOAGPPCfg>
d:\Electromic\business_card\obj/../src/Main.c:193
    GPIOAGPPCfg(ENABLE, RB_PIN_ADC10_IE | RB_PIN_ADC11_IE);
     b96:	45b1                	li	a1,12
     b98:	4505                	li	a0,1
     b9a:	2bc5                	jal	118a <GPIOAGPPCfg>
d:\Electromic\business_card\obj/../src/Main.c:194
    GPIOAGPPCfg(ENABLE, RB_PIN_ADC12_IE | RB_PIN_ADC13_IE);
     b9c:	6589                	lui	a1,0x2
     b9e:	80058593          	addi	a1,a1,-2048 # 1800 <_data_lma+0x540>
     ba2:	4505                	li	a0,1
     ba4:	23dd                	jal	118a <GPIOAGPPCfg>
d:\Electromic\business_card\obj/../src/Main.c:195
    GPIOAGPPCfg(ENABLE, RB_PIN_ADC8_9_IE);
     ba6:	4585                	li	a1,1
     ba8:	4505                	li	a0,1
     baa:	23c5                	jal	118a <GPIOAGPPCfg>
TKey_ChSampInit():
d:\Electromic\business_card\obj/../src/Main.c:114
    R8_ADC_CFG = RB_ADC_POWER_ON | RB_ADC_BUF_EN | (1<<4);
     bac:	400017b7          	lui	a5,0x40001
     bb0:	474d                	li	a4,19
     bb2:	04e78ca3          	sb	a4,89(a5) # 40001059 <_eusrstack+0x1fff9059>
d:\Electromic\business_card\obj/../src/Main.c:115
    R8_TKEY_CFG |= RB_TKEY_PWR_ON;
     bb6:	0577c703          	lbu	a4,87(a5)
     bba:	9b818a13          	addi	s4,gp,-1608 # 20000b60 <tkey_base>
     bbe:	00000997          	auipc	s3,0x0
     bc2:	6fa98993          	addi	s3,s3,1786 # 12b8 <CSWTCH.24>
     bc6:	00176713          	ori	a4,a4,1
     bca:	04e78ba3          	sb	a4,87(a5)
     bce:	00000a97          	auipc	s5,0x0
     bd2:	6f1a8a93          	addi	s5,s5,1777 # 12bf <CSWTCH.24+0x7>
TKey_Init():
d:\Electromic\business_card\obj/../src/Main.c:212
                case 4: row_ch=11; break;
                case 5: row_ch=12; break;
                case 6: row_ch=13; break;
                default: row_ch=0;
            }
            R8_ADC_CHANNEL = row_ch;
     bd6:	40001b37          	lui	s6,0x40001
d:\Electromic\business_card\obj/../src/Main.c:200
        for(c=0;c<COL_COUNT;c++){
     bda:	4b9d                	li	s7,7
d:\Electromic\business_card\obj/../src/Main.c:187
{
     bdc:	84d2                	mv	s1,s4
d:\Electromic\business_card\obj/../src/Main.c:200
        for(c=0;c<COL_COUNT;c++){
     bde:	4401                	li	s0,0
d:\Electromic\business_card\obj/../src/Main.c:202
            switch(r){
     be0:	0009c903          	lbu	s2,0(s3)
d:\Electromic\business_card\obj/../src/Main.c:213
            DelayUs(5);
     be4:	4515                	li	a0,5
     be6:	0489                	addi	s1,s1,2
d:\Electromic\business_card\obj/../src/Main.c:212
            R8_ADC_CHANNEL = row_ch;
     be8:	052b0c23          	sb	s2,88(s6) # 40001058 <_eusrstack+0x1fff9058>
d:\Electromic\business_card\obj/../src/Main.c:213
            DelayUs(5);
     bec:	20000097          	auipc	ra,0x20000
     bf0:	95c080e7          	jalr	-1700(ra) # 20000548 <mDelayuS>
d:\Electromic\business_card\obj/../src/Main.c:214
            TKey_Convert(row_ch,8,1);
     bf4:	854a                	mv	a0,s2
     bf6:	3d41                	jal	a86 <TKey_Convert.constprop.0>
d:\Electromic\business_card\obj/../src/Main.c:215
            DelayUs(3);
     bf8:	450d                	li	a0,3
     bfa:	20000097          	auipc	ra,0x20000
     bfe:	94e080e7          	jalr	-1714(ra) # 20000548 <mDelayuS>
d:\Electromic\business_card\obj/../src/Main.c:216
            tkey_base[r][c] = TKey_Convert(c,8,1);
     c02:	8522                	mv	a0,s0
     c04:	3549                	jal	a86 <TKey_Convert.constprop.0>
     c06:	fea49f23          	sh	a0,-2(s1)
d:\Electromic\business_card\obj/../src/Main.c:217
            DelayUs(2);
     c0a:	4509                	li	a0,2
     c0c:	20000097          	auipc	ra,0x20000
     c10:	93c080e7          	jalr	-1732(ra) # 20000548 <mDelayuS>
d:\Electromic\business_card\obj/../src/Main.c:218
            tkey_base[r][c] = (tkey_base[r][c] + TKey_Convert(c,8,1)) >> 1;
     c14:	ffe4d903          	lhu	s2,-2(s1)
     c18:	8522                	mv	a0,s0
     c1a:	35b5                	jal	a86 <TKey_Convert.constprop.0>
     c1c:	954a                	add	a0,a0,s2
     c1e:	8505                	srai	a0,a0,0x1
d:\Electromic\business_card\obj/../src/Main.c:200
        for(c=0;c<COL_COUNT;c++){
     c20:	0405                	addi	s0,s0,1
d:\Electromic\business_card\obj/../src/Main.c:218
            tkey_base[r][c] = (tkey_base[r][c] + TKey_Convert(c,8,1)) >> 1;
     c22:	fea49f23          	sh	a0,-2(s1)
d:\Electromic\business_card\obj/../src/Main.c:200
        for(c=0;c<COL_COUNT;c++){
     c26:	0ff47413          	andi	s0,s0,255
     c2a:	fb741be3          	bne	s0,s7,be0 <TKey_Init+0x72>
     c2e:	0985                	addi	s3,s3,1
     c30:	0a39                	addi	s4,s4,14
d:\Electromic\business_card\obj/../src/Main.c:199 (discriminator 2)
    for(r=0;r<ROW_COUNT-1;r++){
     c32:	fb5995e3          	bne	s3,s5,bdc <TKey_Init+0x6e>
d:\Electromic\business_card\obj/../src/Main.c:223
        }
    }

    R8_Init();
}
     c36:	5422                	lw	s0,40(sp)
     c38:	50b2                	lw	ra,44(sp)
     c3a:	5492                	lw	s1,36(sp)
     c3c:	5902                	lw	s2,32(sp)
     c3e:	49f2                	lw	s3,28(sp)
     c40:	4a62                	lw	s4,24(sp)
     c42:	4ad2                	lw	s5,20(sp)
     c44:	4b42                	lw	s6,16(sp)
     c46:	4bb2                	lw	s7,12(sp)
     c48:	6145                	addi	sp,sp,48
d:\Electromic\business_card\obj/../src/Main.c:222
    R8_Init();
     c4a:	bdbd                	j	ac8 <R8_Init>

00000c4c <MatrixScan>:
MatrixScan():
d:\Electromic\business_card\obj/../src/Main.c:227

/* ======================== çں©éکµو‰«وڈڈ ======================== */
void MatrixScan(void)
{
     c4c:	715d                	addi	sp,sp,-80
     c4e:	c2a6                	sw	s1,68(sp)
     c50:	dc52                	sw	s4,56(sp)
     c52:	da56                	sw	s5,52(sp)
     c54:	d85a                	sw	s6,48(sp)
     c56:	d65e                	sw	s7,44(sp)
     c58:	d462                	sw	s8,40(sp)
     c5a:	d266                	sw	s9,36(sp)
     c5c:	d06a                	sw	s10,32(sp)
     c5e:	c686                	sw	ra,76(sp)
     c60:	c4a2                	sw	s0,72(sp)
     c62:	c0ca                	sw	s2,64(sp)
     c64:	de4e                	sw	s3,60(sp)
     c66:	ce6e                	sw	s11,28(sp)
     c68:	9b818c93          	addi	s9,gp,-1608 # 20000b60 <tkey_base>
     c6c:	4c01                	li	s8,0
d:\Electromic\business_card\obj/../src/Main.c:231
    uint8_t r,c,idx;
    uint16_t val,diff;

    for(r=0;r<ROW_COUNT-1;r++){
     c6e:	4481                	li	s1,0
d:\Electromic\business_card\obj/../src/Main.c:233
        /* ç”¨ switch è®¾ه®ڑه½“ه‰چè،Œه¼•è„ڑو‹‰ن½ژ */
        switch(r){
     c70:	4a95                	li	s5,5
     c72:	00000b97          	auipc	s7,0x0
     c76:	532b8b93          	addi	s7,s7,1330 # 11a4 <GPIOAGPPCfg+0x1a>
d:\Electromic\business_card\obj/../src/Main.c:235
            case 0: R32_PA_CLR = GPIO_Pin_6; break;
            case 1: R32_PA_CLR = GPIO_Pin_0; break;
     c7a:	4d05                	li	s10,1
d:\Electromic\business_card\obj/../src/Main.c:249
            val = TKey_Convert(c,8,1);
            diff = (val>tkey_base[r][c])?(val-tkey_base[r][c]):0;
            idx = r*COL_COUNT+c;
            if(idx>=KEY_COUNT) continue;
            if(r<4){ if(diff>80) key_state[idx]=1; }
            else if(c>=2){ if(diff>80) key_state[idx]=1; }
     c7c:	98818b13          	addi	s6,gp,-1656 # 20000b30 <key_state>
d:\Electromic\business_card\obj/../src/Main.c:243
        for(c=0;c<COL_COUNT;c++){
     c80:	4a1d                	li	s4,7
d:\Electromic\business_card\obj/../src/Main.c:233
        switch(r){
     c82:	fff48413          	addi	s0,s1,-1
     c86:	0ff47793          	andi	a5,s0,255
     c8a:	00fae963          	bltu	s5,a5,c9c <MatrixScan+0x50>
     c8e:	078a                	slli	a5,a5,0x2
     c90:	97de                	add	a5,a5,s7
     c92:	4398                	lw	a4,0(a5)
     c94:	400017b7          	lui	a5,0x40001
     c98:	975e                	add	a4,a4,s7
     c9a:	8702                	jr	a4
d:\Electromic\business_card\obj/../src/Main.c:234
            case 0: R32_PA_CLR = GPIO_Pin_6; break;
     c9c:	400017b7          	lui	a5,0x40001
     ca0:	04000713          	li	a4,64
d:\Electromic\business_card\obj/../src/Main.c:240
            case 6: R32_PA_CLR = GPIO_Pin_9; break;
     ca4:	0ae7a623          	sw	a4,172(a5) # 400010ac <_eusrstack+0x1fff90ac>
     ca8:	a019                	j	cae <MatrixScan+0x62>
d:\Electromic\business_card\obj/../src/Main.c:235
            case 1: R32_PA_CLR = GPIO_Pin_0; break;
     caa:	0ba7a623          	sw	s10,172(a5)
d:\Electromic\business_card\obj/../src/Main.c:242
        DelayUs(3);
     cae:	450d                	li	a0,3
     cb0:	20000097          	auipc	ra,0x20000
     cb4:	898080e7          	jalr	-1896(ra) # 20000548 <mDelayuS>
d:\Electromic\business_card\obj/../src/Main.c:243
        for(c=0;c<COL_COUNT;c++){
     cb8:	0ffc7693          	andi	a3,s8,255
d:\Electromic\business_card\obj/../src/Main.c:242
        DelayUs(3);
     cbc:	8de6                	mv	s11,s9
     cbe:	4901                	li	s2,0
d:\Electromic\business_card\obj/../src/Main.c:248
            if(r<4){ if(diff>80) key_state[idx]=1; }
     cc0:	4805                	li	a6,1
     cc2:	0ff97993          	andi	s3,s2,255
d:\Electromic\business_card\obj/../src/Main.c:244
            val = TKey_Convert(c,8,1);
     cc6:	854e                	mv	a0,s3
     cc8:	c642                	sw	a6,12(sp)
     cca:	c436                	sw	a3,8(sp)
     ccc:	3b6d                	jal	a86 <TKey_Convert.constprop.0>
d:\Electromic\business_card\obj/../src/Main.c:245
            diff = (val>tkey_base[r][c])?(val-tkey_base[r][c]):0;
     cce:	000dd883          	lhu	a7,0(s11)
     cd2:	4781                	li	a5,0
     cd4:	46a2                	lw	a3,8(sp)
     cd6:	03000613          	li	a2,48
     cda:	458d                	li	a1,3
     cdc:	05000713          	li	a4,80
     ce0:	4832                	lw	a6,12(sp)
     ce2:	00a8f763          	bgeu	a7,a0,cf0 <MatrixScan+0xa4>
d:\Electromic\business_card\obj/../src/Main.c:245 (discriminator 1)
     ce6:	41150533          	sub	a0,a0,a7
     cea:	01051793          	slli	a5,a0,0x10
     cee:	83c1                	srli	a5,a5,0x10
d:\Electromic\business_card\obj/../src/Main.c:247 (discriminator 4)
            if(idx>=KEY_COUNT) continue;
     cf0:	99b6                	add	s3,s3,a3
     cf2:	0ff9f993          	andi	s3,s3,255
     cf6:	00c98b63          	beq	s3,a2,d0c <MatrixScan+0xc0>
d:\Electromic\business_card\obj/../src/Main.c:248
            if(r<4){ if(diff>80) key_state[idx]=1; }
     cfa:	0495e963          	bltu	a1,s1,d4c <MatrixScan+0x100>
d:\Electromic\business_card\obj/../src/Main.c:248 (discriminator 1)
     cfe:	00f77763          	bgeu	a4,a5,d0c <MatrixScan+0xc0>
d:\Electromic\business_card\obj/../src/Main.c:248 (discriminator 2)
     d02:	018907b3          	add	a5,s2,s8
     d06:	97da                	add	a5,a5,s6
     d08:	01078023          	sb	a6,0(a5)
     d0c:	0905                	addi	s2,s2,1
     d0e:	0d89                	addi	s11,s11,2
d:\Electromic\business_card\obj/../src/Main.c:243 (discriminator 2)
        for(c=0;c<COL_COUNT;c++){
     d10:	fb4919e3          	bne	s2,s4,cc2 <MatrixScan+0x76>
d:\Electromic\business_card\obj/../src/Main.c:251
        }
        switch(r){
     d14:	0ff47413          	andi	s0,s0,255
     d18:	048ae463          	bltu	s5,s0,d60 <MatrixScan+0x114>
     d1c:	00000797          	auipc	a5,0x0
     d20:	4a078793          	addi	a5,a5,1184 # 11bc <GPIOAGPPCfg+0x32>
     d24:	040a                	slli	s0,s0,0x2
     d26:	943e                	add	s0,s0,a5
     d28:	4018                	lw	a4,0(s0)
     d2a:	973e                	add	a4,a4,a5
     d2c:	400017b7          	lui	a5,0x40001
     d30:	8702                	jr	a4
d:\Electromic\business_card\obj/../src/Main.c:236
            case 2: R32_PA_CLR = GPIO_Pin_1; break;
     d32:	4709                	li	a4,2
     d34:	bf85                	j	ca4 <MatrixScan+0x58>
d:\Electromic\business_card\obj/../src/Main.c:237
            case 3: R32_PA_CLR = GPIO_Pin_2; break;
     d36:	4711                	li	a4,4
     d38:	b7b5                	j	ca4 <MatrixScan+0x58>
d:\Electromic\business_card\obj/../src/Main.c:238
            case 4: R32_PA_CLR = GPIO_Pin_7; break;
     d3a:	08000713          	li	a4,128
     d3e:	b79d                	j	ca4 <MatrixScan+0x58>
d:\Electromic\business_card\obj/../src/Main.c:239
            case 5: R32_PA_CLR = GPIO_Pin_8; break;
     d40:	10000713          	li	a4,256
     d44:	b785                	j	ca4 <MatrixScan+0x58>
d:\Electromic\business_card\obj/../src/Main.c:240
            case 6: R32_PA_CLR = GPIO_Pin_9; break;
     d46:	20000713          	li	a4,512
     d4a:	bfa9                	j	ca4 <MatrixScan+0x58>
d:\Electromic\business_card\obj/../src/Main.c:249
            else if(c>=2){ if(diff>80) key_state[idx]=1; }
     d4c:	fd2d70e3          	bgeu	s10,s2,d0c <MatrixScan+0xc0>
d:\Electromic\business_card\obj/../src/Main.c:249 (discriminator 1)
     d50:	faf77ee3          	bgeu	a4,a5,d0c <MatrixScan+0xc0>
d:\Electromic\business_card\obj/../src/Main.c:249 (discriminator 2)
     d54:	018907b3          	add	a5,s2,s8
     d58:	97da                	add	a5,a5,s6
     d5a:	01a78023          	sb	s10,0(a5) # 40001000 <_eusrstack+0x1fff9000>
     d5e:	b77d                	j	d0c <MatrixScan+0xc0>
d:\Electromic\business_card\obj/../src/Main.c:252
            case 0: R32_PA_OUT |= GPIO_Pin_6; break;
     d60:	40001737          	lui	a4,0x40001
     d64:	0a872783          	lw	a5,168(a4) # 400010a8 <_eusrstack+0x1fff90a8>
     d68:	0407e793          	ori	a5,a5,64
     d6c:	0af72423          	sw	a5,168(a4)
d:\Electromic\business_card\obj/../src/Main.c:231 (discriminator 2)
    for(r=0;r<ROW_COUNT-1;r++){
     d70:	0485                	addi	s1,s1,1
     d72:	0ff4f493          	andi	s1,s1,255
     d76:	0c1d                	addi	s8,s8,7
     d78:	0cb9                	addi	s9,s9,14
     d7a:	f14494e3          	bne	s1,s4,c82 <MatrixScan+0x36>
d:\Electromic\business_card\obj/../src/Main.c:264
        }
    }

    /* R8 è،Œ - ن½؟ç”¨ RC ه……و”¾ç”µو£€وµ‹ */
    r = 7;
    if(R8_Detect()){
     d7e:	3b8d                	jal	af0 <R8_Detect>
     d80:	c92d                	beqz	a0,df2 <MatrixScan+0x1a6>
d:\Electromic\business_card\obj/../src/Main.c:268
        /* و£€وµ‹ R8 è،Œه“ھن¸€هˆ—وœ‰è§¦و‘¸ */
        /* و­£ه¸¸و‰«وڈڈهˆ— TouchKey, è،Œç”± PB8/PB9 وڈگن¾›و؟€هٹ± */
        for(c=2;c<COL_COUNT;c++){
            val = TKey_Convert(c,8,1);
     d82:	4509                	li	a0,2
     d84:	3309                	jal	a86 <TKey_Convert.constprop.0>
     d86:	450d                	li	a0,3
     d88:	39fd                	jal	a86 <TKey_Convert.constprop.0>
     d8a:	4511                	li	a0,4
     d8c:	39ed                	jal	a86 <TKey_Convert.constprop.0>
     d8e:	4515                	li	a0,5
     d90:	39dd                	jal	a86 <TKey_Convert.constprop.0>
d:\Electromic\business_card\obj/../src/Main.c:274
            diff = (val>tkey_base[r][c])?(val-tkey_base[r][c]):0;
            idx = r*COL_COUNT+c;
            if(idx<KEY_COUNT && diff>80) key_state[idx]=1;
        }
    }
}
     d92:	4426                	lw	s0,72(sp)
     d94:	40b6                	lw	ra,76(sp)
     d96:	4496                	lw	s1,68(sp)
     d98:	4906                	lw	s2,64(sp)
     d9a:	59f2                	lw	s3,60(sp)
     d9c:	5a62                	lw	s4,56(sp)
     d9e:	5ad2                	lw	s5,52(sp)
     da0:	5b42                	lw	s6,48(sp)
     da2:	5bb2                	lw	s7,44(sp)
     da4:	5c22                	lw	s8,40(sp)
     da6:	5c92                	lw	s9,36(sp)
     da8:	5d02                	lw	s10,32(sp)
     daa:	4df2                	lw	s11,28(sp)
d:\Electromic\business_card\obj/../src/Main.c:268
            val = TKey_Convert(c,8,1);
     dac:	4519                	li	a0,6
d:\Electromic\business_card\obj/../src/Main.c:274
}
     dae:	6161                	addi	sp,sp,80
d:\Electromic\business_card\obj/../src/Main.c:268
            val = TKey_Convert(c,8,1);
     db0:	b9d9                	j	a86 <TKey_Convert.constprop.0>
d:\Electromic\business_card\obj/../src/Main.c:253
            case 1: R32_PA_OUT |= GPIO_Pin_0; break;
     db2:	0a87a703          	lw	a4,168(a5)
     db6:	00176713          	ori	a4,a4,1
d:\Electromic\business_card\obj/../src/Main.c:258
            case 6: R32_PA_OUT |= GPIO_Pin_9; break;
     dba:	0ae7a423          	sw	a4,168(a5)
     dbe:	bf4d                	j	d70 <MatrixScan+0x124>
d:\Electromic\business_card\obj/../src/Main.c:254
            case 2: R32_PA_OUT |= GPIO_Pin_1; break;
     dc0:	0a87a703          	lw	a4,168(a5)
     dc4:	00276713          	ori	a4,a4,2
     dc8:	bfcd                	j	dba <MatrixScan+0x16e>
d:\Electromic\business_card\obj/../src/Main.c:255
            case 3: R32_PA_OUT |= GPIO_Pin_2; break;
     dca:	0a87a703          	lw	a4,168(a5)
     dce:	00476713          	ori	a4,a4,4
     dd2:	b7e5                	j	dba <MatrixScan+0x16e>
d:\Electromic\business_card\obj/../src/Main.c:256
            case 4: R32_PA_OUT |= GPIO_Pin_7; break;
     dd4:	0a87a703          	lw	a4,168(a5)
     dd8:	08076713          	ori	a4,a4,128
     ddc:	bff9                	j	dba <MatrixScan+0x16e>
d:\Electromic\business_card\obj/../src/Main.c:257
            case 5: R32_PA_OUT |= GPIO_Pin_8; break;
     dde:	0a87a703          	lw	a4,168(a5)
     de2:	10076713          	ori	a4,a4,256
     de6:	bfd1                	j	dba <MatrixScan+0x16e>
d:\Electromic\business_card\obj/../src/Main.c:258
            case 6: R32_PA_OUT |= GPIO_Pin_9; break;
     de8:	0a87a703          	lw	a4,168(a5)
     dec:	20076713          	ori	a4,a4,512
     df0:	b7e9                	j	dba <MatrixScan+0x16e>
d:\Electromic\business_card\obj/../src/Main.c:274
}
     df2:	40b6                	lw	ra,76(sp)
     df4:	4426                	lw	s0,72(sp)
     df6:	4496                	lw	s1,68(sp)
     df8:	4906                	lw	s2,64(sp)
     dfa:	59f2                	lw	s3,60(sp)
     dfc:	5a62                	lw	s4,56(sp)
     dfe:	5ad2                	lw	s5,52(sp)
     e00:	5b42                	lw	s6,48(sp)
     e02:	5bb2                	lw	s7,44(sp)
     e04:	5c22                	lw	s8,40(sp)
     e06:	5c92                	lw	s9,36(sp)
     e08:	5d02                	lw	s10,32(sp)
     e0a:	4df2                	lw	s11,28(sp)
     e0c:	6161                	addi	sp,sp,80
     e0e:	8082                	ret

00000e10 <SendHIDReport>:
SendHIDReport():
d:\Electromic\business_card\obj/../src/Main.c:278

/* ======================== HID وٹ¥ه‘ٹ ======================== */
void SendHIDReport(void)
{
     e10:	1101                	addi	sp,sp,-32
d:\Electromic\business_card\obj/../src/Main.c:280
    uint8_t i,idx,r,c,kc,mod=0,ri=2;
    for(i=0;i<8;i++) HIDKeyBuff[i]=0;
     e12:	20000797          	auipc	a5,0x20000
     e16:	b807ab23          	sw	zero,-1130(a5) # 200009a8 <_edata>
     e1a:	20000797          	auipc	a5,0x20000
     e1e:	b807a923          	sw	zero,-1134(a5) # 200009ac <_edata+0x4>
d:\Electromic\business_card\obj/../src/Main.c:278
{
     e22:	ce22                	sw	s0,28(sp)
     e24:	cc26                	sw	s1,24(sp)
     e26:	ca4a                	sw	s2,20(sp)
     e28:	c84e                	sw	s3,16(sp)
     e2a:	c652                	sw	s4,12(sp)
     e2c:	c456                	sw	s5,8(sp)
     e2e:	c25a                	sw	s6,4(sp)
d:\Electromic\business_card\obj/../src/Main.c:281
    if(key_state[FN_R1*COL_COUNT+FN_C1] || key_state[FN_R2*COL_COUNT+FN_C2])
     e30:	9a01c783          	lbu	a5,-1632(gp) # 20000b48 <key_state+0x18>
     e34:	98818313          	addi	t1,gp,-1656 # 20000b30 <key_state>
     e38:	e791                	bnez	a5,e44 <SendHIDReport+0x34>
d:\Electromic\business_card\obj/../src/Main.c:281 (discriminator 1)
     e3a:	03234783          	lbu	a5,50(t1)
     e3e:	0ff7f793          	andi	a5,a5,255
     e42:	c781                	beqz	a5,e4a <SendHIDReport+0x3a>
d:\Electromic\business_card\obj/../src/Main.c:282
        fn_pressed=1;
     e44:	4785                	li	a5,1
     e46:	80f18823          	sb	a5,-2032(gp) # 200009b8 <fn_pressed>
     e4a:	00000517          	auipc	a0,0x0
     e4e:	3c250513          	addi	a0,a0,962 # 120c <KeyMap>
d:\Electromic\business_card\obj/../src/Main.c:278 (discriminator 3)
{
     e52:	4801                	li	a6,0
     e54:	4609                	li	a2,2
     e56:	4701                	li	a4,0
d:\Electromic\business_card\obj/../src/Main.c:286 (discriminator 3)
    for(idx=0;idx<KEY_COUNT && ri<8;idx++){
        if(!key_state[idx]) continue;
        r=KeyMap[idx][0]; c=KeyMap[idx][1];
        if((r==FN_R1&&c==FN_C1)||(r==FN_R2&&c==FN_C2)) continue;
     e58:	4e0d                	li	t3,3
d:\Electromic\business_card\obj/../src/Main.c:287 (discriminator 3)
        kc = fn_pressed?FnTable[r][c]:KeyTable[r][c];
     e5a:	81018e93          	addi	t4,gp,-2032 # 200009b8 <fn_pressed>
d:\Electromic\business_card\obj/../src/Main.c:289 (discriminator 3)
        if(fn_pressed && kc==0) kc=KeyTable[r][c];
        if(kc==0xE0) mod|=0x01;
     e5e:	0e000393          	li	t2,224
d:\Electromic\business_card\obj/../src/Main.c:290 (discriminator 3)
        else if(kc==0xE1) mod|=0x02;
     e62:	0e100413          	li	s0,225
d:\Electromic\business_card\obj/../src/Main.c:291 (discriminator 3)
        else if(kc==0xE2) mod|=0x04;
     e66:	0e200493          	li	s1,226
d:\Electromic\business_card\obj/../src/Main.c:292 (discriminator 3)
        else if(kc==0xE3) mod|=0x08;
     e6a:	0e300913          	li	s2,227
d:\Electromic\business_card\obj/../src/Main.c:293 (discriminator 3)
        else HIDKeyBuff[ri++]=kc;
     e6e:	20000997          	auipc	s3,0x20000
     e72:	b3a98993          	addi	s3,s3,-1222 # 200009a8 <_edata>
d:\Electromic\business_card\obj/../src/Main.c:288 (discriminator 3)
        if(fn_pressed && kc==0) kc=KeyTable[r][c];
     e76:	00000f17          	auipc	t5,0x0
     e7a:	3f6f0f13          	addi	t5,t5,1014 # 126c <KeyTable>
     e7e:	489d                	li	a7,7
d:\Electromic\business_card\obj/../src/Main.c:287 (discriminator 3)
        kc = fn_pressed?FnTable[r][c]:KeyTable[r][c];
     e80:	00000a17          	auipc	s4,0x0
     e84:	354a0a13          	addi	s4,s4,852 # 11d4 <FnTable>
d:\Electromic\business_card\obj/../src/Main.c:286 (discriminator 3)
        if((r==FN_R1&&c==FN_C1)||(r==FN_R2&&c==FN_C2)) continue;
     e88:	4a85                	li	s5,1
d:\Electromic\business_card\obj/../src/Main.c:283 (discriminator 3)
    for(idx=0;idx<KEY_COUNT && ri<8;idx++){
     e8a:	02f00293          	li	t0,47
     e8e:	4fa1                	li	t6,8
d:\Electromic\business_card\obj/../src/Main.c:284
        if(!key_state[idx]) continue;
     e90:	010307b3          	add	a5,t1,a6
     e94:	0007c783          	lbu	a5,0(a5)
     e98:	0ff7f793          	andi	a5,a5,255
     e9c:	cb89                	beqz	a5,eae <SendHIDReport+0x9e>
d:\Electromic\business_card\obj/../src/Main.c:285
        r=KeyMap[idx][0]; c=KeyMap[idx][1];
     e9e:	00054783          	lbu	a5,0(a0)
     ea2:	00154583          	lbu	a1,1(a0)
d:\Electromic\business_card\obj/../src/Main.c:286
        if((r==FN_R1&&c==FN_C1)||(r==FN_R2&&c==FN_C2)) continue;
     ea6:	05c79e63          	bne	a5,t3,f02 <SendHIDReport+0xf2>
d:\Electromic\business_card\obj/../src/Main.c:286 (discriminator 1)
     eaa:	07c59063          	bne	a1,t3,f0a <SendHIDReport+0xfa>
d:\Electromic\business_card\obj/../src/Main.c:283 (discriminator 2)
    for(idx=0;idx<KEY_COUNT && ri<8;idx++){
     eae:	00580663          	beq	a6,t0,eba <SendHIDReport+0xaa>
     eb2:	0805                	addi	a6,a6,1
     eb4:	0509                	addi	a0,a0,2
d:\Electromic\business_card\obj/../src/Main.c:283 (discriminator 3)
     eb6:	fdf61de3          	bne	a2,t6,e90 <SendHIDReport+0x80>
d:\Electromic\business_card\obj/../src/Main.c:295
    }
    HIDKeyBuff[0]=mod;
     eba:	20000797          	auipc	a5,0x20000
     ebe:	aee78723          	sb	a4,-1298(a5) # 200009a8 <_edata>
d:\Electromic\business_card\obj/../src/Main.c:297

    for(i=0;i<8;i++) if(HIDKeyBuff[i]!=HIDKeyBuffPrev[i]) break;
     ec2:	20000517          	auipc	a0,0x20000
     ec6:	ae650513          	addi	a0,a0,-1306 # 200009a8 <_edata>
     eca:	80818813          	addi	a6,gp,-2040 # 200009b0 <HIDKeyBuffPrev>
d:\Electromic\business_card\obj/../src/Main.c:295
    HIDKeyBuff[0]=mod;
     ece:	4781                	li	a5,0
     ed0:	86aa                	mv	a3,a0
     ed2:	88c2                	mv	a7,a6
d:\Electromic\business_card\obj/../src/Main.c:297
    for(i=0;i<8;i++) if(HIDKeyBuff[i]!=HIDKeyBuffPrev[i]) break;
     ed4:	4321                	li	t1,8
d:\Electromic\business_card\obj/../src/Main.c:297 (discriminator 4)
     ed6:	00f505b3          	add	a1,a0,a5
     eda:	00f80633          	add	a2,a6,a5
     ede:	0005c583          	lbu	a1,0(a1)
     ee2:	00064603          	lbu	a2,0(a2)
     ee6:	08c59a63          	bne	a1,a2,f7a <SendHIDReport+0x16a>
     eea:	0785                	addi	a5,a5,1
d:\Electromic\business_card\obj/../src/Main.c:297 (discriminator 2)
     eec:	fe6795e3          	bne	a5,t1,ed6 <SendHIDReport+0xc6>
d:\Electromic\business_card\obj/../src/Main.c:311
    EP1_Databuf[69] = HIDKeyBuff[5];
    EP1_Databuf[70] = HIDKeyBuff[6];
    EP1_Databuf[71] = HIDKeyBuff[7];
    R8_UEP1_T_LEN = 8;
    R8_UEP1_CTRL = (R8_UEP1_CTRL & ~MASK_UEP_T_RES) | UEP_T_RES_ACK;
}
     ef0:	4472                	lw	s0,28(sp)
     ef2:	44e2                	lw	s1,24(sp)
     ef4:	4952                	lw	s2,20(sp)
     ef6:	49c2                	lw	s3,16(sp)
     ef8:	4a32                	lw	s4,12(sp)
     efa:	4aa2                	lw	s5,8(sp)
     efc:	4b12                	lw	s6,4(sp)
     efe:	6105                	addi	sp,sp,32
     f00:	8082                	ret
d:\Electromic\business_card\obj/../src/Main.c:286 (discriminator 4)
        if((r==FN_R1&&c==FN_C1)||(r==FN_R2&&c==FN_C2)) continue;
     f02:	01179463          	bne	a5,a7,f0a <SendHIDReport+0xfa>
d:\Electromic\business_card\obj/../src/Main.c:286 (discriminator 5)
     f06:	fb5584e3          	beq	a1,s5,eae <SendHIDReport+0x9e>
d:\Electromic\business_card\obj/../src/Main.c:287
        kc = fn_pressed?FnTable[r][c]:KeyTable[r][c];
     f0a:	000ec683          	lbu	a3,0(t4)
     f0e:	0ff6f693          	andi	a3,a3,255
     f12:	ca8d                	beqz	a3,f44 <SendHIDReport+0x134>
d:\Electromic\business_card\obj/../src/Main.c:287 (discriminator 1)
     f14:	031786b3          	mul	a3,a5,a7
     f18:	96d2                	add	a3,a3,s4
d:\Electromic\business_card\obj/../src/Main.c:288 (discriminator 2)
        if(fn_pressed && kc==0) kc=KeyTable[r][c];
     f1a:	000ecb03          	lbu	s6,0(t4)
d:\Electromic\business_card\obj/../src/Main.c:287 (discriminator 2)
        kc = fn_pressed?FnTable[r][c]:KeyTable[r][c];
     f1e:	96ae                	add	a3,a3,a1
     f20:	0006c683          	lbu	a3,0(a3)
d:\Electromic\business_card\obj/../src/Main.c:288 (discriminator 2)
        if(fn_pressed && kc==0) kc=KeyTable[r][c];
     f24:	0ffb7b13          	andi	s6,s6,255
     f28:	000b0963          	beqz	s6,f3a <SendHIDReport+0x12a>
d:\Electromic\business_card\obj/../src/Main.c:288 (discriminator 1)
     f2c:	e699                	bnez	a3,f3a <SendHIDReport+0x12a>
d:\Electromic\business_card\obj/../src/Main.c:288 (discriminator 2)
     f2e:	031787b3          	mul	a5,a5,a7
     f32:	97fa                	add	a5,a5,t5
     f34:	97ae                	add	a5,a5,a1
     f36:	0007c683          	lbu	a3,0(a5)
d:\Electromic\business_card\obj/../src/Main.c:289
        if(kc==0xE0) mod|=0x01;
     f3a:	00769963          	bne	a3,t2,f4c <SendHIDReport+0x13c>
d:\Electromic\business_card\obj/../src/Main.c:289 (discriminator 1)
     f3e:	00176713          	ori	a4,a4,1
     f42:	b7b5                	j	eae <SendHIDReport+0x9e>
d:\Electromic\business_card\obj/../src/Main.c:287 (discriminator 2)
        kc = fn_pressed?FnTable[r][c]:KeyTable[r][c];
     f44:	031786b3          	mul	a3,a5,a7
     f48:	96fa                	add	a3,a3,t5
     f4a:	bfc1                	j	f1a <SendHIDReport+0x10a>
d:\Electromic\business_card\obj/../src/Main.c:290
        else if(kc==0xE1) mod|=0x02;
     f4c:	00869563          	bne	a3,s0,f56 <SendHIDReport+0x146>
d:\Electromic\business_card\obj/../src/Main.c:290 (discriminator 1)
     f50:	00276713          	ori	a4,a4,2
     f54:	bfa9                	j	eae <SendHIDReport+0x9e>
d:\Electromic\business_card\obj/../src/Main.c:291
        else if(kc==0xE2) mod|=0x04;
     f56:	00969563          	bne	a3,s1,f60 <SendHIDReport+0x150>
d:\Electromic\business_card\obj/../src/Main.c:291 (discriminator 1)
     f5a:	00476713          	ori	a4,a4,4
     f5e:	bf81                	j	eae <SendHIDReport+0x9e>
d:\Electromic\business_card\obj/../src/Main.c:292
        else if(kc==0xE3) mod|=0x08;
     f60:	01269563          	bne	a3,s2,f6a <SendHIDReport+0x15a>
d:\Electromic\business_card\obj/../src/Main.c:292 (discriminator 1)
     f64:	00876713          	ori	a4,a4,8
     f68:	b799                	j	eae <SendHIDReport+0x9e>
d:\Electromic\business_card\obj/../src/Main.c:293
        else HIDKeyBuff[ri++]=kc;
     f6a:	00160793          	addi	a5,a2,1
     f6e:	964e                	add	a2,a2,s3
     f70:	00d60023          	sb	a3,0(a2)
     f74:	0ff7f613          	andi	a2,a5,255
     f78:	bf1d                	j	eae <SendHIDReport+0x9e>
     f7a:	4781                	li	a5,0
d:\Electromic\business_card\obj/../src/Main.c:299
    for(i=0;i<8;i++) HIDKeyBuffPrev[i]=HIDKeyBuff[i];
     f7c:	4621                	li	a2,8
d:\Electromic\business_card\obj/../src/Main.c:299 (discriminator 3)
     f7e:	00f68533          	add	a0,a3,a5
     f82:	00054503          	lbu	a0,0(a0)
     f86:	00f885b3          	add	a1,a7,a5
     f8a:	0785                	addi	a5,a5,1
     f8c:	00a58023          	sb	a0,0(a1)
     f90:	fec797e3          	bne	a5,a2,f7e <SendHIDReport+0x16e>
d:\Electromic\business_card\obj/../src/Main.c:301
    EP1_Databuf[64] = HIDKeyBuff[0];
     f94:	90e18c23          	sb	a4,-1768(gp) # 20000ac0 <EP1_Databuf+0x40>
d:\Electromic\business_card\obj/../src/Main.c:302
    EP1_Databuf[65] = HIDKeyBuff[1];
     f98:	0016c703          	lbu	a4,1(a3)
     f9c:	90e18ca3          	sb	a4,-1767(gp) # 20000ac1 <EP1_Databuf+0x41>
d:\Electromic\business_card\obj/../src/Main.c:303
    EP1_Databuf[66] = HIDKeyBuff[2];
     fa0:	0026d703          	lhu	a4,2(a3)
     fa4:	90e19d23          	sh	a4,-1766(gp) # 20000ac2 <EP1_Databuf+0x42>
d:\Electromic\business_card\obj/../src/Main.c:305
    EP1_Databuf[68] = HIDKeyBuff[4];
     fa8:	42d8                	lw	a4,4(a3)
     faa:	90e1ae23          	sw	a4,-1764(gp) # 20000ac4 <EP1_Databuf+0x44>
d:\Electromic\business_card\obj/../src/Main.c:309
    R8_UEP1_T_LEN = 8;
     fae:	40008737          	lui	a4,0x40008
     fb2:	02f70223          	sb	a5,36(a4) # 40008024 <_eusrstack+0x20000024>
d:\Electromic\business_card\obj/../src/Main.c:310
    R8_UEP1_CTRL = (R8_UEP1_CTRL & ~MASK_UEP_T_RES) | UEP_T_RES_ACK;
     fb6:	02674783          	lbu	a5,38(a4)
     fba:	0fc7f793          	andi	a5,a5,252
     fbe:	02f70323          	sb	a5,38(a4)
     fc2:	b73d                	j	ef0 <SendHIDReport+0xe0>

00000fc4 <main>:
main():
d:\Electromic\business_card\obj/../src/Main.c:315

/* ======================== ن¸»ه‡½و•° ======================== */
int main(void)
{
     fc4:	1101                	addi	sp,sp,-32
d:\Electromic\business_card\obj/../src/Main.c:317
    uint8_t i;
    SetSysClock(CLK_SOURCE_PLL_60MHz);
     fc6:	04800513          	li	a0,72
d:\Electromic\business_card\obj/../src/Main.c:315
{
     fca:	ce06                	sw	ra,28(sp)
     fcc:	cc22                	sw	s0,24(sp)
     fce:	ca26                	sw	s1,20(sp)
     fd0:	c84a                	sw	s2,16(sp)
     fd2:	c64e                	sw	s3,12(sp)
     fd4:	c452                	sw	s4,8(sp)
d:\Electromic\business_card\obj/../src/Main.c:317
    SetSysClock(CLK_SOURCE_PLL_60MHz);
     fd6:	1ffff097          	auipc	ra,0x1ffff
     fda:	0bc080e7          	jalr	188(ra) # 20000092 <SetSysClock>
d:\Electromic\business_card\obj/../src/Main.c:319

    TKey_Init();
     fde:	3e41                	jal	b6e <TKey_Init>
d:\Electromic\business_card\obj/../src/Main.c:321

    R8_USB_CTRL = 0x00;
     fe0:	400087b7          	lui	a5,0x40008
     fe4:	00078023          	sb	zero,0(a5) # 40008000 <_eusrstack+0x20000000>
d:\Electromic\business_card\obj/../src/Main.c:322
    R8_UEP4_1_MOD = RB_UEP4_RX_EN | RB_UEP4_TX_EN | RB_UEP1_RX_EN | RB_UEP1_TX_EN;
     fe8:	fcc00713          	li	a4,-52
     fec:	00e78623          	sb	a4,12(a5)
d:\Electromic\business_card\obj/../src/Main.c:323
    R8_UEP2_3_MOD = RB_UEP2_RX_EN | RB_UEP2_TX_EN | RB_UEP3_RX_EN | RB_UEP3_TX_EN;
     ff0:	00e786a3          	sb	a4,13(a5)
d:\Electromic\business_card\obj/../src/Main.c:324
    R16_UEP0_DMA = (uint16_t)(uint32_t)EP0_Databuf;
     ff4:	81818713          	addi	a4,gp,-2024 # 200009c0 <EP0_Databuf>
     ff8:	00e79823          	sh	a4,16(a5)
d:\Electromic\business_card\obj/../src/Main.c:325
    R16_UEP1_DMA = (uint16_t)(uint32_t)EP1_Databuf;
     ffc:	8d818713          	addi	a4,gp,-1832 # 20000a80 <EP1_Databuf>
    1000:	00e79a23          	sh	a4,20(a5)
d:\Electromic\business_card\obj/../src/Main.c:326
    R8_UEP0_CTRL = UEP_R_RES_ACK | UEP_T_RES_NAK;
    1004:	4709                	li	a4,2
    1006:	02e78123          	sb	a4,34(a5)
d:\Electromic\business_card\obj/../src/Main.c:327
    R8_UEP1_CTRL = UEP_R_RES_ACK | UEP_T_RES_NAK | RB_UEP_AUTO_TOG;
    100a:	4749                	li	a4,18
    100c:	02e78323          	sb	a4,38(a5)
d:\Electromic\business_card\obj/../src/Main.c:328
    R8_USB_DEV_AD = 0x00;
    1010:	000781a3          	sb	zero,3(a5)
d:\Electromic\business_card\obj/../src/Main.c:329
    R8_USB_CTRL = RB_UC_DEV_PU_EN | RB_UC_INT_BUSY | RB_UC_DMA_EN;
    1014:	02900713          	li	a4,41
    1018:	00e78023          	sb	a4,0(a5)
d:\Electromic\business_card\obj/../src/Main.c:330
    R16_PIN_ANALOG_IE |= RB_PIN_USB_IE | RB_PIN_USB_DP_PU;
    101c:	400016b7          	lui	a3,0x40001
    1020:	01a6d703          	lhu	a4,26(a3) # 4000101a <_eusrstack+0x1fff901a>
d:\Electromic\business_card\obj/../src/Main.c:336
    R8_USB_INT_FG = 0xFF;
    R8_UDEV_CTRL = RB_UD_PD_DIS | RB_UD_PORT_EN;
    R8_USB_INT_EN = RB_UIE_SUSPEND | RB_UIE_BUS_RST | RB_UIE_TRANSFER;

    PFIC_EnableIRQ(USB_IRQn);
    DelayMs(100);
    1024:	06400513          	li	a0,100
d:\Electromic\business_card\obj/../src/Main.c:339

    while(1){
        for(i=0;i<KEY_COUNT;i++){ key_prev[i]=key_state[i]; key_state[i]=0; }
    1028:	98818413          	addi	s0,gp,-1656 # 20000b30 <key_state>
d:\Electromic\business_card\obj/../src/Main.c:330
    R16_PIN_ANALOG_IE |= RB_PIN_USB_IE | RB_PIN_USB_DP_PU;
    102c:	0c076713          	ori	a4,a4,192
    1030:	00e69d23          	sh	a4,26(a3)
d:\Electromic\business_card\obj/../src/Main.c:331
    R8_USB_INT_FG = 0xFF;
    1034:	577d                	li	a4,-1
    1036:	00e78323          	sb	a4,6(a5)
d:\Electromic\business_card\obj/../src/Main.c:332
    R8_UDEV_CTRL = RB_UD_PD_DIS | RB_UD_PORT_EN;
    103a:	f8100713          	li	a4,-127
    103e:	00e780a3          	sb	a4,1(a5)
d:\Electromic\business_card\obj/../src/Main.c:333
    R8_USB_INT_EN = RB_UIE_SUSPEND | RB_UIE_BUS_RST | RB_UIE_TRANSFER;
    1042:	471d                	li	a4,7
    1044:	00e78123          	sb	a4,2(a5)
PFIC_EnableIRQ():
d:\Electromic\business_card\RVMSIS/core_riscv.h:112
 *
 * @param   IRQn    - Interrupt Numbers
 */
RV_STATIC_INLINE void PFIC_EnableIRQ(IRQn_Type IRQn)
{
    PFIC->IENR[((uint32_t)(IRQn) >> 5)] = (1 << ((uint32_t)(IRQn)&0x1F));
    1048:	e000e7b7          	lui	a5,0xe000e
    104c:	00400737          	lui	a4,0x400
    1050:	10e7a023          	sw	a4,256(a5) # e000e100 <_eusrstack+0xc0006100>
main():
d:\Electromic\business_card\obj/../src/Main.c:339
        for(i=0;i<KEY_COUNT;i++){ key_prev[i]=key_state[i]; key_state[i]=0; }
    1054:	95818493          	addi	s1,gp,-1704 # 20000b00 <key_prev>
d:\Electromic\business_card\obj/../src/Main.c:336
    DelayMs(100);
    1058:	1ffff097          	auipc	ra,0x1ffff
    105c:	4fe080e7          	jalr	1278(ra) # 20000556 <mDelaymS>
d:\Electromic\business_card\obj/../src/Main.c:339
        for(i=0;i<KEY_COUNT;i++){ key_prev[i]=key_state[i]; key_state[i]=0; }
    1060:	03000913          	li	s2,48
    1064:	89a2                	mv	s3,s0
    1066:	8a26                	mv	s4,s1
d:\Electromic\business_card\obj/../src/Main.c:315
{
    1068:	4781                	li	a5,0
d:\Electromic\business_card\obj/../src/Main.c:339 (discriminator 3)
        for(i=0;i<KEY_COUNT;i++){ key_prev[i]=key_state[i]; key_state[i]=0; }
    106a:	00f406b3          	add	a3,s0,a5
    106e:	0006c703          	lbu	a4,0(a3)
    1072:	00f48633          	add	a2,s1,a5
    1076:	0785                	addi	a5,a5,1
    1078:	0ff77713          	andi	a4,a4,255
    107c:	00e60023          	sb	a4,0(a2)
    1080:	00068023          	sb	zero,0(a3)
    1084:	ff2793e3          	bne	a5,s2,106a <main+0xa6>
d:\Electromic\business_card\obj/../src/Main.c:340
        fn_pressed=0;
    1088:	80018823          	sb	zero,-2032(gp) # 200009b8 <fn_pressed>
d:\Electromic\business_card\obj/../src/Main.c:341
        MatrixScan();
    108c:	36c1                	jal	c4c <MatrixScan>
    108e:	4781                	li	a5,0
d:\Electromic\business_card\obj/../src/Main.c:342 (discriminator 4)
        for(i=0;i<KEY_COUNT;i++) if(key_state[i]!=key_prev[i]) break;
    1090:	00f98733          	add	a4,s3,a5
    1094:	00074683          	lbu	a3,0(a4) # 400000 <_data_lma+0x3fed40>
    1098:	00fa0733          	add	a4,s4,a5
    109c:	00074703          	lbu	a4,0(a4)
    10a0:	0ff77713          	andi	a4,a4,255
    10a4:	00d71b63          	bne	a4,a3,10ba <main+0xf6>
    10a8:	0785                	addi	a5,a5,1
d:\Electromic\business_card\obj/../src/Main.c:342 (discriminator 2)
    10aa:	ff2793e3          	bne	a5,s2,1090 <main+0xcc>
d:\Electromic\business_card\obj/../src/Main.c:344
        if(i<KEY_COUNT) SendHIDReport();
        DelayMs(5);
    10ae:	4515                	li	a0,5
    10b0:	1ffff097          	auipc	ra,0x1ffff
    10b4:	4a6080e7          	jalr	1190(ra) # 20000556 <mDelaymS>
d:\Electromic\business_card\obj/../src/Main.c:339
        for(i=0;i<KEY_COUNT;i++){ key_prev[i]=key_state[i]; key_state[i]=0; }
    10b8:	bf45                	j	1068 <main+0xa4>
d:\Electromic\business_card\obj/../src/Main.c:343
        if(i<KEY_COUNT) SendHIDReport();
    10ba:	3b99                	jal	e10 <SendHIDReport>
    10bc:	bfcd                	j	10ae <main+0xea>

000010be <USB_IRQHandler>:
USB_IRQHandler():
d:\Electromic\business_card\obj/../src/Main.c:352

/* ======================== USB ن¸­و–­ ======================== */
void USB_IRQHandler(void) __attribute__((interrupt("WCH-Interrupt-fast")));
void USB_IRQHandler(void)
{
    uint8_t f = R8_USB_INT_FG;
    10be:	400087b7          	lui	a5,0x40008
    10c2:	0067c703          	lbu	a4,6(a5) # 40008006 <_eusrstack+0x20000006>
d:\Electromic\business_card\obj/../src/Main.c:355
    if(f & RB_UIE_SUSPEND)  {}
    if(f & RB_UIE_TRANSFER) {}
    if(f & RB_UIE_BUS_RST) {
    10c6:	8b05                	andi	a4,a4,1
    10c8:	cf01                	beqz	a4,10e0 <USB_IRQHandler+0x22>
d:\Electromic\business_card\obj/../src/Main.c:356
        R8_USB_DEV_AD = 0;
    10ca:	000781a3          	sb	zero,3(a5)
d:\Electromic\business_card\obj/../src/Main.c:357
        R8_UEP0_CTRL = UEP_R_RES_ACK | UEP_T_RES_NAK;
    10ce:	4709                	li	a4,2
    10d0:	02e78123          	sb	a4,34(a5)
d:\Electromic\business_card\obj/../src/Main.c:358
        R8_UEP1_CTRL = UEP_R_RES_ACK | UEP_T_RES_NAK | RB_UEP_AUTO_TOG;
    10d4:	4749                	li	a4,18
    10d6:	02e78323          	sb	a4,38(a5)
d:\Electromic\business_card\obj/../src/Main.c:359
        R8_USB_INT_FG = RB_UIE_BUS_RST;
    10da:	4705                	li	a4,1
    10dc:	00e78323          	sb	a4,6(a5)
d:\Electromic\business_card\obj/../src/Main.c:361
    }
}
    10e0:	30200073          	mret

000010e4 <GPIOB_ModeCfg>:
GPIOB_ModeCfg():
d:\Electromic\business_card\obj/../StdPeriphDriver/CH58x_gpio.c:74
 *
 * @return  none
 */
void GPIOB_ModeCfg(uint32_t pin, GPIOModeTypeDef mode)
{
    switch(mode)
    10e4:	4791                	li	a5,4
    10e6:	02b7ee63          	bltu	a5,a1,1122 <GPIOB_ModeCfg+0x3e>
    10ea:	00000717          	auipc	a4,0x0
    10ee:	1ba70713          	addi	a4,a4,442 # 12a4 <KeyTable+0x38>
    10f2:	058a                	slli	a1,a1,0x2
    10f4:	95ba                	add	a1,a1,a4
    10f6:	419c                	lw	a5,0(a1)
    10f8:	97ba                	add	a5,a5,a4
    10fa:	8782                	jr	a5
d:\Electromic\business_card\obj/../StdPeriphDriver/CH58x_gpio.c:77
    {
        case GPIO_ModeIN_Floating:
            R32_PB_PD_DRV &= ~pin;
    10fc:	400017b7          	lui	a5,0x40001
    1100:	0d47a703          	lw	a4,212(a5) # 400010d4 <_eusrstack+0x1fff90d4>
    1104:	fff54513          	not	a0,a0
    1108:	8f69                	and	a4,a4,a0
    110a:	0ce7aa23          	sw	a4,212(a5)
d:\Electromic\business_card\obj/../StdPeriphDriver/CH58x_gpio.c:78
            R32_PB_PU &= ~pin;
    110e:	0d07a703          	lw	a4,208(a5)
d:\Electromic\business_card\obj/../StdPeriphDriver/CH58x_gpio.c:90
            R32_PB_DIR &= ~pin;
            break;

        case GPIO_ModeIN_PD:
            R32_PB_PD_DRV |= pin;
            R32_PB_PU &= ~pin;
    1112:	8f69                	and	a4,a4,a0
    1114:	0ce7a823          	sw	a4,208(a5)
d:\Electromic\business_card\obj/../StdPeriphDriver/CH58x_gpio.c:91
            R32_PB_DIR &= ~pin;
    1118:	0c07a703          	lw	a4,192(a5)
    111c:	8d79                	and	a0,a0,a4
d:\Electromic\business_card\obj/../StdPeriphDriver/CH58x_gpio.c:101
            R32_PB_DIR |= pin;
            break;

        case GPIO_ModeOut_PP_20mA:
            R32_PB_PD_DRV |= pin;
            R32_PB_DIR |= pin;
    111e:	0ca7a023          	sw	a0,192(a5)
d:\Electromic\business_card\obj/../StdPeriphDriver/CH58x_gpio.c:107
            break;

        default:
            break;
    }
}
    1122:	8082                	ret
d:\Electromic\business_card\obj/../StdPeriphDriver/CH58x_gpio.c:83
            R32_PB_PD_DRV &= ~pin;
    1124:	400017b7          	lui	a5,0x40001
    1128:	0d47a683          	lw	a3,212(a5) # 400010d4 <_eusrstack+0x1fff90d4>
    112c:	fff54713          	not	a4,a0
    1130:	8ef9                	and	a3,a3,a4
    1132:	0cd7aa23          	sw	a3,212(a5)
d:\Electromic\business_card\obj/../StdPeriphDriver/CH58x_gpio.c:84
            R32_PB_PU |= pin;
    1136:	0d07a683          	lw	a3,208(a5)
    113a:	8d55                	or	a0,a0,a3
    113c:	0ca7a823          	sw	a0,208(a5)
d:\Electromic\business_card\obj/../StdPeriphDriver/CH58x_gpio.c:85
            R32_PB_DIR &= ~pin;
    1140:	0c07a683          	lw	a3,192(a5)
    1144:	8f75                	and	a4,a4,a3
    1146:	0ce7a023          	sw	a4,192(a5)
d:\Electromic\business_card\obj/../StdPeriphDriver/CH58x_gpio.c:86
            break;
    114a:	8082                	ret
d:\Electromic\business_card\obj/../StdPeriphDriver/CH58x_gpio.c:89
            R32_PB_PD_DRV |= pin;
    114c:	400017b7          	lui	a5,0x40001
    1150:	0d47a703          	lw	a4,212(a5) # 400010d4 <_eusrstack+0x1fff90d4>
    1154:	8f49                	or	a4,a4,a0
    1156:	0ce7aa23          	sw	a4,212(a5)
d:\Electromic\business_card\obj/../StdPeriphDriver/CH58x_gpio.c:90
            R32_PB_PU &= ~pin;
    115a:	0d07a703          	lw	a4,208(a5)
    115e:	fff54513          	not	a0,a0
    1162:	bf45                	j	1112 <GPIOB_ModeCfg+0x2e>
d:\Electromic\business_card\obj/../StdPeriphDriver/CH58x_gpio.c:95
            R32_PB_PD_DRV &= ~pin;
    1164:	400017b7          	lui	a5,0x40001
    1168:	0d47a683          	lw	a3,212(a5) # 400010d4 <_eusrstack+0x1fff90d4>
    116c:	fff54713          	not	a4,a0
    1170:	8f75                	and	a4,a4,a3
d:\Electromic\business_card\obj/../StdPeriphDriver/CH58x_gpio.c:100
            R32_PB_PD_DRV |= pin;
    1172:	0ce7aa23          	sw	a4,212(a5)
d:\Electromic\business_card\obj/../StdPeriphDriver/CH58x_gpio.c:101
            R32_PB_DIR |= pin;
    1176:	0c07a703          	lw	a4,192(a5)
    117a:	8d59                	or	a0,a0,a4
    117c:	b74d                	j	111e <GPIOB_ModeCfg+0x3a>
d:\Electromic\business_card\obj/../StdPeriphDriver/CH58x_gpio.c:100
            R32_PB_PD_DRV |= pin;
    117e:	400017b7          	lui	a5,0x40001
    1182:	0d47a703          	lw	a4,212(a5) # 400010d4 <_eusrstack+0x1fff90d4>
    1186:	8f49                	or	a4,a4,a0
    1188:	b7ed                	j	1172 <GPIOB_ModeCfg+0x8e>

0000118a <GPIOAGPPCfg>:
GPIOAGPPCfg():
d:\Electromic\business_card\obj/../StdPeriphDriver/CH58x_gpio.c:257
 */
void GPIOAGPPCfg(FunctionalState s, uint16_t perph)
{
    if(s)
    {
        R16_PIN_ANALOG_IE |= perph;
    118a:	400017b7          	lui	a5,0x40001
    118e:	01a7d703          	lhu	a4,26(a5) # 4000101a <_eusrstack+0x1fff901a>
d:\Electromic\business_card\obj/../StdPeriphDriver/CH58x_gpio.c:255
    if(s)
    1192:	c509                	beqz	a0,119c <GPIOAGPPCfg+0x12>
d:\Electromic\business_card\obj/../StdPeriphDriver/CH58x_gpio.c:257
        R16_PIN_ANALOG_IE |= perph;
    1194:	8dd9                	or	a1,a1,a4
d:\Electromic\business_card\obj/../StdPeriphDriver/CH58x_gpio.c:261
    }
    else
    {
        R16_PIN_ANALOG_IE &= ~perph;
    1196:	00b79d23          	sh	a1,26(a5)
d:\Electromic\business_card\obj/../StdPeriphDriver/CH58x_gpio.c:263
    }
}
    119a:	8082                	ret
d:\Electromic\business_card\obj/../StdPeriphDriver/CH58x_gpio.c:261
        R16_PIN_ANALOG_IE &= ~perph;
    119c:	fff5c593          	not	a1,a1
    11a0:	8df9                	and	a1,a1,a4
    11a2:	bfd5                	j	1196 <GPIOAGPPCfg+0xc>
    11a4:	fb06                	fsw	ft1,180(sp)
    11a6:	ffff                	0xffff
    11a8:	fb8e                	fsw	ft3,244(sp)
    11aa:	ffff                	0xffff
    11ac:	fb92                	fsw	ft4,244(sp)
    11ae:	ffff                	0xffff
    11b0:	fb96                	fsw	ft5,244(sp)
    11b2:	ffff                	0xffff
    11b4:	fb9c                	fsw	fa5,48(a5)
    11b6:	ffff                	0xffff
    11b8:	fba2                	fsw	fs0,244(sp)
    11ba:	ffff                	0xffff
    11bc:	fbf6                	fsw	ft9,244(sp)
    11be:	ffff                	0xffff
    11c0:	fc04                	fsw	fs1,56(s0)
    11c2:	ffff                	0xffff
    11c4:	fc0e                	fsw	ft3,56(sp)
    11c6:	ffff                	0xffff
    11c8:	fc18                	fsw	fa4,56(s0)
    11ca:	ffff                	0xffff
    11cc:	fc22                	fsw	fs0,56(sp)
    11ce:	ffff                	0xffff
    11d0:	fc2c                	fsw	fa1,120(s0)
    11d2:	ffff                	0xffff

000011d4 <FnTable>:
    11d4:	1e00 201f 2221 0023 0000 0000 0000 0000     ... !"#.........
	...
    11f0:	2524 2726 0000 0000 0000 0000 0000 0000     $%&'............
	...

0000120c <KeyMap>:
    120c:	0000 0100 0200 0300 0400 0500 0600 0001     ................
    121c:	0101 0201 0301 0401 0501 0601 0002 0102     ................
    122c:	0202 0302 0402 0502 0602 0003 0103 0203     ................
    123c:	0303 0403 0503 0603 0204 0304 0404 0504     ................
    124c:	0604 0205 0305 0405 0505 0605 0206 0306     ................
    125c:	0406 0506 0606 0207 0307 0407 0507 0607     ................

0000126c <KeyTable>:
    126c:	1429 081a 1715 2b1c 1604 0907 0b0a 1de1     )......+........
    127c:	061b 0519 e011 e2e3 2c00 2c2c 0c18 1312     .........,,,....
    128c:	002a 0d00 0f0e 2833 0000 3610 5237 0038     *.....3(...67R8.
    129c:	2c00 5000 4f51 0000 fe58 ffff fe80 ffff     .,.PQO..X.......
    12ac:	fea8 ffff fec0 ffff feda ffff               ............

000012b8 <CSWTCH.24>:
    12b8:	090a 0708 0c0b 000d                         ........
